; ModuleID = 'C:/Users/jonas/source/repos/ERTS/Mini_Project/HLS/Differentiate/solution6/.autopilot/db/a.o.3.bc'
target datalayout = "e-p:32:32:32-i1:8:8-i8:8:8-i16:16:16-i32:32:32-i64:64:64-f32:32:32-f64:64:64-f80:128:128-v64:64:64-v128:128:128-a0:0:64-f80:32:32-n8:16:32-S32"
target triple = "i686-pc-mingw32"

@llvm_global_ctors_1 = appending global [1 x void ()*] [void ()* @_GLOBAL__I_a] ; [#uses=0 type=[1 x void ()*]*]
@llvm_global_ctors_0 = appending global [1 x i32] [i32 65535] ; [#uses=0 type=[1 x i32]*]
@differentiate_str = internal unnamed_addr constant [14 x i8] c"differentiate\00" ; [#uses=1 type=[14 x i8]*]
@RAM_1P_str = internal unnamed_addr constant [7 x i8] c"RAM_1P\00" ; [#uses=2 type=[7 x i8]*]
@p_str4 = private unnamed_addr constant [7 x i8] c"ImgCol\00", align 1 ; [#uses=3 type=[7 x i8]*]
@p_str3 = private unnamed_addr constant [7 x i8] c"ImgRow\00", align 1 ; [#uses=3 type=[7 x i8]*]
@p_str2 = private unnamed_addr constant [10 x i8] c"s_axilite\00", align 1 ; [#uses=3 type=[10 x i8]*]
@p_str1 = private unnamed_addr constant [5 x i8] c"diff\00", align 1 ; [#uses=4 type=[5 x i8]*]
@p_str = private unnamed_addr constant [1 x i8] zeroinitializer, align 1 ; [#uses=36 type=[1 x i8]*]

; [#uses=5]
declare void @llvm.dbg.value(metadata, i64, metadata) nounwind readnone

; [#uses=0]
define void @differentiate([3072 x i8]* %img, [9 x i3]* %window_V, [2852 x i15]* %res_V) {
  %window_V_addr = getelementptr [9 x i3]* %window_V, i32 0, i32 0, !dbg !64 ; [#uses=1 type=i3*] [debug line = 1451:95@1451:111@3368:0@3465:213@18:26]
  %window_V_addr_1 = getelementptr [9 x i3]* %window_V, i32 0, i32 1, !dbg !64 ; [#uses=1 type=i3*] [debug line = 1451:95@1451:111@3368:0@3465:213@18:26]
  %window_V_addr_2 = getelementptr [9 x i3]* %window_V, i32 0, i32 2, !dbg !64 ; [#uses=1 type=i3*] [debug line = 1451:95@1451:111@3368:0@3465:213@18:26]
  %window_V_addr_3 = getelementptr [9 x i3]* %window_V, i32 0, i32 3, !dbg !64 ; [#uses=1 type=i3*] [debug line = 1451:95@1451:111@3368:0@3465:213@18:26]
  %window_V_addr_4 = getelementptr [9 x i3]* %window_V, i32 0, i32 4, !dbg !64 ; [#uses=1 type=i3*] [debug line = 1451:95@1451:111@3368:0@3465:213@18:26]
  %window_V_addr_5 = getelementptr [9 x i3]* %window_V, i32 0, i32 5, !dbg !64 ; [#uses=1 type=i3*] [debug line = 1451:95@1451:111@3368:0@3465:213@18:26]
  %window_V_addr_6 = getelementptr [9 x i3]* %window_V, i32 0, i32 6, !dbg !64 ; [#uses=1 type=i3*] [debug line = 1451:95@1451:111@3368:0@3465:213@18:26]
  %window_V_addr_7 = getelementptr [9 x i3]* %window_V, i32 0, i32 7, !dbg !64 ; [#uses=1 type=i3*] [debug line = 1451:95@1451:111@3368:0@3465:213@18:26]
  %window_V_addr_8 = getelementptr [9 x i3]* %window_V, i32 0, i32 8, !dbg !64 ; [#uses=1 type=i3*] [debug line = 1451:95@1451:111@3368:0@3465:213@18:26]
  call void (...)* @_ssdm_op_SpecBitsMap([3072 x i8]* %img), !map !3036
  call void (...)* @_ssdm_op_SpecBitsMap([9 x i3]* %window_V), !map !3043
  call void (...)* @_ssdm_op_SpecBitsMap([2852 x i15]* %res_V), !map !3049
  call void (...)* @_ssdm_op_SpecTopModule([14 x i8]* @differentiate_str) nounwind
  call void @llvm.dbg.value(metadata !{[3072 x i8]* %img}, i64 0, metadata !3056), !dbg !3060 ; [debug line = 3:13] [debug variable = img]
  call void @llvm.dbg.value(metadata !{[9 x i3]* %window_V}, i64 0, metadata !3061), !dbg !3071 ; [debug line = 4:16] [debug variable = window.V]
  call void @llvm.dbg.value(metadata !{[2852 x i15]* %res_V}, i64 0, metadata !3072), !dbg !3083 ; [debug line = 5:16] [debug variable = res.V]
  call void (...)* @_ssdm_op_SpecInterface([2852 x i15]* %res_V, [1 x i8]* @p_str, i32 0, i32 0, [1 x i8]* @p_str, i32 0, i32 0, [5 x i8]* @p_str1, [1 x i8]* @p_str, [1 x i8]* @p_str, i32 0, i32 0, i32 0, i32 0, [1 x i8]* @p_str, [1 x i8]* @p_str)
  %empty = call i32 (...)* @_ssdm_op_SpecMemCore([9 x i3]* %window_V, [1 x i8]* @p_str, [7 x i8]* @RAM_1P_str, [1 x i8]* @p_str, i32 -1, [1 x i8]* @p_str, [1 x i8]* @p_str, [1 x i8]* @p_str, [1 x i8]* @p_str, [1 x i8]* @p_str) ; [#uses=0 type=i32]
  call void (...)* @_ssdm_op_SpecInterface([9 x i3]* %window_V, [10 x i8]* @p_str2, i32 0, i32 0, [1 x i8]* @p_str, i32 0, i32 0, [5 x i8]* @p_str1, [1 x i8]* @p_str, [1 x i8]* @p_str, i32 0, i32 0, i32 0, i32 0, [1 x i8]* @p_str, [1 x i8]* @p_str)
  call void (...)* @_ssdm_op_SpecInterface(i32 0, [10 x i8]* @p_str2, i32 0, i32 0, [1 x i8]* @p_str, i32 0, i32 0, [5 x i8]* @p_str1, [1 x i8]* @p_str, [1 x i8]* @p_str, i32 0, i32 0, i32 0, i32 0, [1 x i8]* @p_str, [1 x i8]* @p_str) nounwind, !dbg !3084 ; [debug line = 7:1]
  %empty_2 = call i32 (...)* @_ssdm_op_SpecMemCore([3072 x i8]* %img, [1 x i8]* @p_str, [7 x i8]* @RAM_1P_str, [1 x i8]* @p_str, i32 -1, [1 x i8]* @p_str, [1 x i8]* @p_str, [1 x i8]* @p_str, [1 x i8]* @p_str, [1 x i8]* @p_str) ; [#uses=0 type=i32]
  call void (...)* @_ssdm_op_SpecInterface([3072 x i8]* %img, [10 x i8]* @p_str2, i32 0, i32 0, [1 x i8]* @p_str, i32 0, i32 0, [5 x i8]* @p_str1, [1 x i8]* @p_str, [1 x i8]* @p_str, i32 0, i32 0, i32 0, i32 0, [1 x i8]* @p_str, [1 x i8]* @p_str)
  br label %1, !dbg !3085                         ; [debug line = 8:24]

; <label>:1                                       ; preds = %5, %0
  %i = phi i6 [ 1, %0 ], [ %i_1, %5 ]             ; [#uses=5 type=i6]
  %exitcond1 = icmp eq i6 %i, -1, !dbg !3085      ; [#uses=1 type=i1] [debug line = 8:24]
  br i1 %exitcond1, label %6, label %2, !dbg !3085 ; [debug line = 8:24]

; <label>:2                                       ; preds = %1
  %tmp_7 = call i12 @_ssdm_op_BitConcatenate.i12.i6.i6(i6 %i, i6 0) ; [#uses=1 type=i12]
  %p_shl4_cast = zext i12 %tmp_7 to i13           ; [#uses=1 type=i13]
  %tmp_8 = call i10 @_ssdm_op_BitConcatenate.i10.i6.i4(i6 %i, i4 0) ; [#uses=1 type=i10]
  %p_shl5_cast = zext i10 %tmp_8 to i13, !dbg !1703 ; [#uses=1 type=i13] [debug line = 18:26]
  %tmp_9 = sub i13 %p_shl4_cast, %p_shl5_cast, !dbg !1703 ; [#uses=3 type=i13] [debug line = 18:26]
  %empty_3 = call i32 (...)* @_ssdm_op_SpecLoopTripCount(i64 62, i64 62, i64 62) ; [#uses=0 type=i32]
  call void (...)* @_ssdm_op_SpecLoopName([7 x i8]* @p_str3) nounwind, !dbg !3086 ; [debug line = 8:43]
  %tmp_1 = call i32 (...)* @_ssdm_op_SpecRegionBegin([7 x i8]* @p_str3), !dbg !3086 ; [#uses=1 type=i32] [debug line = 8:43]
  %tmp = add i6 %i, -1, !dbg !1703                ; [#uses=3 type=i6] [debug line = 18:26]
  %tmp_cast_cast = zext i6 %tmp to i12, !dbg !3087 ; [#uses=1 type=i12] [debug line = 280:10@24:7]
  %tmp_3 = call i12 @_ssdm_op_BitConcatenate.i12.i6.i6(i6 %tmp, i6 0) ; [#uses=1 type=i12]
  %p_shl2_cast = zext i12 %tmp_3 to i13           ; [#uses=1 type=i13]
  %tmp_10 = call i10 @_ssdm_op_BitConcatenate.i10.i6.i4(i6 %tmp, i4 0) ; [#uses=1 type=i10]
  %p_shl3_cast = zext i10 %tmp_10 to i13, !dbg !1703 ; [#uses=1 type=i13] [debug line = 18:26]
  %tmp_11 = sub i13 %p_shl2_cast, %p_shl3_cast, !dbg !1703 ; [#uses=3 type=i13] [debug line = 18:26]
  %tmp_12 = mul i12 %tmp_cast_cast, 46, !dbg !3087 ; [#uses=1 type=i12] [debug line = 280:10@24:7]
  %i_1 = add i6 %i, 1                             ; [#uses=3 type=i6]
  %tmp_13 = call i12 @_ssdm_op_BitConcatenate.i12.i6.i6(i6 %i_1, i6 0) ; [#uses=1 type=i12]
  %p_shl_cast = zext i12 %tmp_13 to i13           ; [#uses=1 type=i13]
  %tmp_14 = call i10 @_ssdm_op_BitConcatenate.i10.i6.i4(i6 %i_1, i4 0) ; [#uses=1 type=i10]
  %p_shl1_cast = zext i10 %tmp_14 to i13, !dbg !1703 ; [#uses=1 type=i13] [debug line = 18:26]
  %tmp_15 = sub i13 %p_shl_cast, %p_shl1_cast, !dbg !1703 ; [#uses=3 type=i13] [debug line = 18:26]
  br label %3, !dbg !3091                         ; [debug line = 10:26]

; <label>:3                                       ; preds = %4, %2
  %j = phi i6 [ 1, %2 ], [ %j_1, %4 ]             ; [#uses=4 type=i6]
  %exitcond2 = icmp eq i6 %j, -17, !dbg !3091     ; [#uses=1 type=i1] [debug line = 10:26]
  br i1 %exitcond2, label %5, label %4, !dbg !3091 ; [debug line = 10:26]

; <label>:4                                       ; preds = %3
  %j_cast_cast = zext i6 %j to i13, !dbg !1703    ; [#uses=3 type=i13] [debug line = 18:26]
  %tmp_16 = add i13 %tmp_11, %j_cast_cast, !dbg !1703 ; [#uses=1 type=i13] [debug line = 18:26]
  %tmp_17_cast = sext i13 %tmp_16 to i32, !dbg !1703 ; [#uses=1 type=i32] [debug line = 18:26]
  %img_addr_1 = getelementptr [3072 x i8]* %img, i32 0, i32 %tmp_17_cast, !dbg !1703 ; [#uses=1 type=i8*] [debug line = 18:26]
  %tmp_17 = add i13 %tmp_9, %j_cast_cast, !dbg !1703 ; [#uses=1 type=i13] [debug line = 18:26]
  %tmp_18_cast = sext i13 %tmp_17 to i32, !dbg !1703 ; [#uses=1 type=i32] [debug line = 18:26]
  %img_addr_4 = getelementptr [3072 x i8]* %img, i32 0, i32 %tmp_18_cast, !dbg !1703 ; [#uses=1 type=i8*] [debug line = 18:26]
  %tmp_18 = add i13 %tmp_15, %j_cast_cast, !dbg !1703 ; [#uses=1 type=i13] [debug line = 18:26]
  %tmp_19_cast = sext i13 %tmp_18 to i32, !dbg !1703 ; [#uses=1 type=i32] [debug line = 18:26]
  %img_addr_7 = getelementptr [3072 x i8]* %img, i32 0, i32 %tmp_19_cast, !dbg !1703 ; [#uses=1 type=i8*] [debug line = 18:26]
  %empty_4 = call i32 (...)* @_ssdm_op_SpecLoopTripCount(i64 46, i64 46, i64 46) ; [#uses=0 type=i32]
  call void (...)* @_ssdm_op_SpecLoopName([7 x i8]* @p_str4) nounwind, !dbg !3092 ; [debug line = 10:45]
  %tmp_4 = call i32 (...)* @_ssdm_op_SpecRegionBegin([7 x i8]* @p_str4), !dbg !3092 ; [#uses=1 type=i32] [debug line = 10:45]
  call void (...)* @_ssdm_op_SpecPipeline(i32 -1, i32 1, i32 1, i32 0, [1 x i8]* @p_str) nounwind, !dbg !3093 ; [debug line = 11:1]
  %tmp_2 = add i6 %j, -1, !dbg !1703              ; [#uses=2 type=i6] [debug line = 18:26]
  %tmp_2_cast_cast6 = zext i6 %tmp_2 to i12, !dbg !1703 ; [#uses=1 type=i12] [debug line = 18:26]
  %tmp_2_cast_cast = zext i6 %tmp_2 to i13, !dbg !1703 ; [#uses=3 type=i13] [debug line = 18:26]
  %tmp_19 = add i13 %tmp_11, %tmp_2_cast_cast, !dbg !1703 ; [#uses=1 type=i13] [debug line = 18:26]
  %tmp_20_cast = sext i13 %tmp_19 to i32, !dbg !1703 ; [#uses=1 type=i32] [debug line = 18:26]
  %img_addr = getelementptr [3072 x i8]* %img, i32 0, i32 %tmp_20_cast, !dbg !1703 ; [#uses=1 type=i8*] [debug line = 18:26]
  %tmp_20 = add i13 %tmp_9, %tmp_2_cast_cast, !dbg !1703 ; [#uses=1 type=i13] [debug line = 18:26]
  %tmp_21_cast = sext i13 %tmp_20 to i32, !dbg !1703 ; [#uses=1 type=i32] [debug line = 18:26]
  %img_addr_3 = getelementptr [3072 x i8]* %img, i32 0, i32 %tmp_21_cast, !dbg !1703 ; [#uses=1 type=i8*] [debug line = 18:26]
  %tmp_21 = add i13 %tmp_15, %tmp_2_cast_cast, !dbg !1703 ; [#uses=1 type=i13] [debug line = 18:26]
  %tmp_22_cast = sext i13 %tmp_21 to i32, !dbg !1703 ; [#uses=1 type=i32] [debug line = 18:26]
  %img_addr_6 = getelementptr [3072 x i8]* %img, i32 0, i32 %tmp_22_cast, !dbg !1703 ; [#uses=1 type=i8*] [debug line = 18:26]
  %tmp_22 = add i12 %tmp_12, %tmp_2_cast_cast6, !dbg !3087 ; [#uses=1 type=i12] [debug line = 280:10@24:7]
  %tmp_23_cast = zext i12 %tmp_22 to i32, !dbg !3087 ; [#uses=1 type=i32] [debug line = 280:10@24:7]
  %res_V_addr = getelementptr [2852 x i15]* %res_V, i32 0, i32 %tmp_23_cast, !dbg !3087 ; [#uses=1 type=i15*] [debug line = 280:10@24:7]
  %img_load = load i8* %img_addr, align 1, !dbg !1703 ; [#uses=1 type=i8] [debug line = 18:26]
  %lhs_V = zext i8 %img_load to i11, !dbg !3094   ; [#uses=1 type=i11] [debug line = 1451:95@1451:111@3368:0@3465:213@18:26]
  %window_V_load = load i3* %window_V_addr, align 1, !dbg !64 ; [#uses=1 type=i3] [debug line = 1451:95@1451:111@3368:0@3465:213@18:26]
  %rhs_V = sext i3 %window_V_load to i11, !dbg !64 ; [#uses=1 type=i11] [debug line = 1451:95@1451:111@3368:0@3465:213@18:26]
  %r_V = mul i11 %rhs_V, %lhs_V, !dbg !1156       ; [#uses=1 type=i11] [debug line = 3368:0@3465:213@18:26]
  %tmp_cast = sext i11 %r_V to i12, !dbg !1703    ; [#uses=1 type=i12] [debug line = 18:26]
  %img_load_1 = load i8* %img_addr_1, align 1, !dbg !1703 ; [#uses=1 type=i8] [debug line = 18:26]
  %lhs_V_0_1 = zext i8 %img_load_1 to i11, !dbg !3094 ; [#uses=1 type=i11] [debug line = 1451:95@1451:111@3368:0@3465:213@18:26]
  %window_V_load_1 = load i3* %window_V_addr_1, align 1, !dbg !64 ; [#uses=1 type=i3] [debug line = 1451:95@1451:111@3368:0@3465:213@18:26]
  %rhs_V_0_1 = sext i3 %window_V_load_1 to i11, !dbg !64 ; [#uses=1 type=i11] [debug line = 1451:95@1451:111@3368:0@3465:213@18:26]
  %r_V_0_1 = mul i11 %rhs_V_0_1, %lhs_V_0_1, !dbg !1156 ; [#uses=1 type=i11] [debug line = 3368:0@3465:213@18:26]
  %tmp_0_1_cast = sext i11 %r_V_0_1 to i12        ; [#uses=1 type=i12]
  %j_1 = add i6 %j, 1, !dbg !1703                 ; [#uses=2 type=i6] [debug line = 18:26]
  %j_1_cast_cast = zext i6 %j_1 to i13, !dbg !1703 ; [#uses=3 type=i13] [debug line = 18:26]
  %tmp_23 = add i13 %tmp_11, %j_1_cast_cast, !dbg !1703 ; [#uses=1 type=i13] [debug line = 18:26]
  %tmp_24_cast = sext i13 %tmp_23 to i32, !dbg !1703 ; [#uses=1 type=i32] [debug line = 18:26]
  %img_addr_2 = getelementptr [3072 x i8]* %img, i32 0, i32 %tmp_24_cast, !dbg !1703 ; [#uses=1 type=i8*] [debug line = 18:26]
  %tmp_24 = add i13 %tmp_9, %j_1_cast_cast, !dbg !1703 ; [#uses=1 type=i13] [debug line = 18:26]
  %tmp_25_cast = sext i13 %tmp_24 to i32, !dbg !1703 ; [#uses=1 type=i32] [debug line = 18:26]
  %img_addr_5 = getelementptr [3072 x i8]* %img, i32 0, i32 %tmp_25_cast, !dbg !1703 ; [#uses=1 type=i8*] [debug line = 18:26]
  %tmp_25 = add i13 %tmp_15, %j_1_cast_cast, !dbg !1703 ; [#uses=1 type=i13] [debug line = 18:26]
  %tmp_26_cast = sext i13 %tmp_25 to i32, !dbg !1703 ; [#uses=1 type=i32] [debug line = 18:26]
  %img_addr_8 = getelementptr [3072 x i8]* %img, i32 0, i32 %tmp_26_cast, !dbg !1703 ; [#uses=1 type=i8*] [debug line = 18:26]
  %img_load_2 = load i8* %img_addr_2, align 1, !dbg !1703 ; [#uses=1 type=i8] [debug line = 18:26]
  %lhs_V_0_2 = zext i8 %img_load_2 to i11, !dbg !3094 ; [#uses=1 type=i11] [debug line = 1451:95@1451:111@3368:0@3465:213@18:26]
  %window_V_load_2 = load i3* %window_V_addr_2, align 1, !dbg !64 ; [#uses=1 type=i3] [debug line = 1451:95@1451:111@3368:0@3465:213@18:26]
  %rhs_V_0_2 = sext i3 %window_V_load_2 to i11, !dbg !64 ; [#uses=1 type=i11] [debug line = 1451:95@1451:111@3368:0@3465:213@18:26]
  %r_V_0_2 = mul i11 %rhs_V_0_2, %lhs_V_0_2, !dbg !1156 ; [#uses=1 type=i11] [debug line = 3368:0@3465:213@18:26]
  %tmp_0_2_cast = sext i11 %r_V_0_2 to i12        ; [#uses=2 type=i12]
  %img_load_3 = load i8* %img_addr_3, align 1, !dbg !1703 ; [#uses=1 type=i8] [debug line = 18:26]
  %lhs_V_1 = zext i8 %img_load_3 to i11, !dbg !3094 ; [#uses=1 type=i11] [debug line = 1451:95@1451:111@3368:0@3465:213@18:26]
  %window_V_load_3 = load i3* %window_V_addr_3, align 1, !dbg !64 ; [#uses=1 type=i3] [debug line = 1451:95@1451:111@3368:0@3465:213@18:26]
  %rhs_V_1 = sext i3 %window_V_load_3 to i11, !dbg !64 ; [#uses=1 type=i11] [debug line = 1451:95@1451:111@3368:0@3465:213@18:26]
  %r_V_1 = mul i11 %rhs_V_1, %lhs_V_1, !dbg !1156 ; [#uses=2 type=i11] [debug line = 3368:0@3465:213@18:26]
  %tmp_1_cast = sext i11 %r_V_1 to i12            ; [#uses=1 type=i12]
  %tmp_9_cast = sext i11 %r_V_1 to i13, !dbg !1703 ; [#uses=1 type=i13] [debug line = 18:26]
  %img_load_4 = load i8* %img_addr_4, align 1, !dbg !1703 ; [#uses=1 type=i8] [debug line = 18:26]
  %lhs_V_1_1 = zext i8 %img_load_4 to i11, !dbg !3094 ; [#uses=1 type=i11] [debug line = 1451:95@1451:111@3368:0@3465:213@18:26]
  %window_V_load_4 = load i3* %window_V_addr_4, align 1, !dbg !64 ; [#uses=1 type=i3] [debug line = 1451:95@1451:111@3368:0@3465:213@18:26]
  %rhs_V_1_1 = sext i3 %window_V_load_4 to i11, !dbg !64 ; [#uses=1 type=i11] [debug line = 1451:95@1451:111@3368:0@3465:213@18:26]
  %r_V_1_1 = mul i11 %rhs_V_1_1, %lhs_V_1_1, !dbg !1156 ; [#uses=1 type=i11] [debug line = 3368:0@3465:213@18:26]
  %tmp_1_1_cast = sext i11 %r_V_1_1 to i12        ; [#uses=1 type=i12]
  %img_load_5 = load i8* %img_addr_5, align 1, !dbg !1703 ; [#uses=1 type=i8] [debug line = 18:26]
  %lhs_V_1_2 = zext i8 %img_load_5 to i11, !dbg !3094 ; [#uses=1 type=i11] [debug line = 1451:95@1451:111@3368:0@3465:213@18:26]
  %window_V_load_5 = load i3* %window_V_addr_5, align 1, !dbg !64 ; [#uses=1 type=i3] [debug line = 1451:95@1451:111@3368:0@3465:213@18:26]
  %rhs_V_1_2 = sext i3 %window_V_load_5 to i11, !dbg !64 ; [#uses=1 type=i11] [debug line = 1451:95@1451:111@3368:0@3465:213@18:26]
  %r_V_1_2 = mul i11 %rhs_V_1_2, %lhs_V_1_2, !dbg !1156 ; [#uses=1 type=i11] [debug line = 3368:0@3465:213@18:26]
  %tmp_1_2_cast = sext i11 %r_V_1_2 to i12        ; [#uses=1 type=i12]
  %img_load_6 = load i8* %img_addr_6, align 1, !dbg !1703 ; [#uses=1 type=i8] [debug line = 18:26]
  %lhs_V_2 = zext i8 %img_load_6 to i11, !dbg !3094 ; [#uses=1 type=i11] [debug line = 1451:95@1451:111@3368:0@3465:213@18:26]
  %window_V_load_6 = load i3* %window_V_addr_6, align 1, !dbg !64 ; [#uses=1 type=i3] [debug line = 1451:95@1451:111@3368:0@3465:213@18:26]
  %rhs_V_2 = sext i3 %window_V_load_6 to i11, !dbg !64 ; [#uses=1 type=i11] [debug line = 1451:95@1451:111@3368:0@3465:213@18:26]
  %r_V_2 = mul i11 %rhs_V_2, %lhs_V_2, !dbg !1156 ; [#uses=2 type=i11] [debug line = 3368:0@3465:213@18:26]
  %tmp_2_cast = sext i11 %r_V_2 to i13            ; [#uses=1 type=i13]
  %tmp_16_cast = sext i11 %r_V_2 to i12, !dbg !1703 ; [#uses=1 type=i12] [debug line = 18:26]
  %img_load_7 = load i8* %img_addr_7, align 1, !dbg !1703 ; [#uses=1 type=i8] [debug line = 18:26]
  %lhs_V_2_1 = zext i8 %img_load_7 to i11, !dbg !3094 ; [#uses=1 type=i11] [debug line = 1451:95@1451:111@3368:0@3465:213@18:26]
  %window_V_load_7 = load i3* %window_V_addr_7, align 1, !dbg !64 ; [#uses=1 type=i3] [debug line = 1451:95@1451:111@3368:0@3465:213@18:26]
  %rhs_V_2_1 = sext i3 %window_V_load_7 to i11, !dbg !64 ; [#uses=1 type=i11] [debug line = 1451:95@1451:111@3368:0@3465:213@18:26]
  %r_V_2_1 = mul i11 %rhs_V_2_1, %lhs_V_2_1, !dbg !1156 ; [#uses=1 type=i11] [debug line = 3368:0@3465:213@18:26]
  %tmp_2_1_cast = sext i11 %r_V_2_1 to i12        ; [#uses=2 type=i12]
  %img_load_8 = load i8* %img_addr_8, align 1, !dbg !1703 ; [#uses=1 type=i8] [debug line = 18:26]
  %lhs_V_2_2 = zext i8 %img_load_8 to i11, !dbg !3094 ; [#uses=1 type=i11] [debug line = 1451:95@1451:111@3368:0@3465:213@18:26]
  %window_V_load_8 = load i3* %window_V_addr_8, align 1, !dbg !64 ; [#uses=1 type=i3] [debug line = 1451:95@1451:111@3368:0@3465:213@18:26]
  %rhs_V_2_2 = sext i3 %window_V_load_8 to i11, !dbg !64 ; [#uses=1 type=i11] [debug line = 1451:95@1451:111@3368:0@3465:213@18:26]
  %r_V_2_2 = mul i11 %rhs_V_2_2, %lhs_V_2_2, !dbg !1156 ; [#uses=1 type=i11] [debug line = 3368:0@3465:213@18:26]
  %tmp_2_2_cast = sext i11 %r_V_2_2 to i12        ; [#uses=2 type=i12]
  %tmp8 = add i12 %tmp_cast, %tmp_0_1_cast, !dbg !3101 ; [#uses=2 type=i12] [debug line = 1824:147@18:26]
  %tmp8_cast = sext i12 %tmp8 to i13, !dbg !3101  ; [#uses=1 type=i13] [debug line = 1824:147@18:26]
  %tmp9 = add i12 %tmp_1_cast, %tmp_0_2_cast, !dbg !3101 ; [#uses=1 type=i12] [debug line = 1824:147@18:26]
  %tmp9_cast = sext i12 %tmp9 to i13, !dbg !3101  ; [#uses=1 type=i13] [debug line = 1824:147@18:26]
  %tmp7 = add i13 %tmp8_cast, %tmp9_cast, !dbg !3101 ; [#uses=1 type=i13] [debug line = 1824:147@18:26]
  %tmp7_cast = sext i13 %tmp7 to i15, !dbg !3101  ; [#uses=1 type=i15] [debug line = 1824:147@18:26]
  %tmp1 = add i12 %tmp_1_2_cast, %tmp_1_1_cast, !dbg !3101 ; [#uses=2 type=i12] [debug line = 1824:147@18:26]
  %tmp11_cast = sext i12 %tmp1 to i14, !dbg !3101 ; [#uses=1 type=i14] [debug line = 1824:147@18:26]
  %tmp2 = add i12 %tmp_2_2_cast, %tmp_2_1_cast, !dbg !3101 ; [#uses=1 type=i12] [debug line = 1824:147@18:26]
  %tmp13_cast = sext i12 %tmp2 to i13, !dbg !3101 ; [#uses=1 type=i13] [debug line = 1824:147@18:26]
  %tmp3 = add i13 %tmp_2_cast, %tmp13_cast, !dbg !3101 ; [#uses=1 type=i13] [debug line = 1824:147@18:26]
  %tmp12_cast = sext i13 %tmp3 to i14, !dbg !3101 ; [#uses=1 type=i14] [debug line = 1824:147@18:26]
  %tmp4 = add i14 %tmp11_cast, %tmp12_cast, !dbg !3101 ; [#uses=1 type=i14] [debug line = 1824:147@18:26]
  %tmp10_cast = sext i14 %tmp4 to i15, !dbg !3101 ; [#uses=1 type=i15] [debug line = 1824:147@18:26]
  %temp_result_V_1_2_2 = add i15 %tmp7_cast, %tmp10_cast, !dbg !3101 ; [#uses=1 type=i15] [debug line = 1824:147@18:26]
  %tmp_26 = call i1 @_ssdm_op_BitSelect.i1.i15.i32(i15 %temp_result_V_1_2_2, i32 14), !dbg !3104 ; [#uses=1 type=i1] [debug line = 1987:9@3504:0@22:11]
  %tmp5 = add i12 %tmp_2_1_cast, %tmp_16_cast, !dbg !3370 ; [#uses=1 type=i12] [debug line = 121:90@121:106@23:23]
  %tmp15_cast = sext i12 %tmp5 to i13, !dbg !3370 ; [#uses=1 type=i13] [debug line = 121:90@121:106@23:23]
  %tmp16_cast = sext i12 %tmp1 to i13, !dbg !3370 ; [#uses=1 type=i13] [debug line = 121:90@121:106@23:23]
  %tmp10 = add i13 %tmp15_cast, %tmp16_cast, !dbg !3370 ; [#uses=1 type=i13] [debug line = 121:90@121:106@23:23]
  %tmp14_cast = sext i13 %tmp10 to i15, !dbg !3370 ; [#uses=1 type=i15] [debug line = 121:90@121:106@23:23]
  %tmp18_cast = sext i12 %tmp8 to i14, !dbg !3370 ; [#uses=1 type=i14] [debug line = 121:90@121:106@23:23]
  %tmp12 = add i12 %tmp_2_2_cast, %tmp_0_2_cast, !dbg !3370 ; [#uses=1 type=i12] [debug line = 121:90@121:106@23:23]
  %tmp20_cast = sext i12 %tmp12 to i13, !dbg !3370 ; [#uses=1 type=i13] [debug line = 121:90@121:106@23:23]
  %tmp13 = add i13 %tmp_9_cast, %tmp20_cast, !dbg !3370 ; [#uses=1 type=i13] [debug line = 121:90@121:106@23:23]
  %tmp19_cast = sext i13 %tmp13 to i14, !dbg !3370 ; [#uses=1 type=i14] [debug line = 121:90@121:106@23:23]
  %tmp14 = add i14 %tmp18_cast, %tmp19_cast, !dbg !3370 ; [#uses=1 type=i14] [debug line = 121:90@121:106@23:23]
  %tmp17_cast = sext i14 %tmp14 to i15, !dbg !3370 ; [#uses=1 type=i15] [debug line = 121:90@121:106@23:23]
  %tmp_s = add i15 %tmp14_cast, %tmp17_cast, !dbg !3370 ; [#uses=2 type=i15] [debug line = 121:90@121:106@23:23]
  %tmp_5 = sub i15 0, %tmp_s, !dbg !3369          ; [#uses=1 type=i15] [debug line = 22:11]
  %tmp_6 = select i1 %tmp_26, i15 %tmp_5, i15 %tmp_s, !dbg !3369 ; [#uses=1 type=i15] [debug line = 22:11]
  store i15 %tmp_6, i15* %res_V_addr, align 2, !dbg !3087 ; [debug line = 280:10@24:7]
  %empty_5 = call i32 (...)* @_ssdm_op_SpecRegionEnd([7 x i8]* @p_str4, i32 %tmp_4), !dbg !3376 ; [#uses=0 type=i32] [debug line = 25:5]
  call void @llvm.dbg.value(metadata !{i6 %j_1}, i64 0, metadata !3377), !dbg !3378 ; [debug line = 10:39] [debug variable = j]
  br label %3, !dbg !3378                         ; [debug line = 10:39]

; <label>:5                                       ; preds = %3
  %empty_6 = call i32 (...)* @_ssdm_op_SpecRegionEnd([7 x i8]* @p_str3, i32 %tmp_1), !dbg !3379 ; [#uses=0 type=i32] [debug line = 26:3]
  call void @llvm.dbg.value(metadata !{i6 %i_1}, i64 0, metadata !3380), !dbg !3381 ; [debug line = 8:37] [debug variable = i]
  br label %1, !dbg !3381                         ; [debug line = 8:37]

; <label>:6                                       ; preds = %1
  ret void, !dbg !3382                            ; [debug line = 27:1]
}

; [#uses=1]
define weak void @_ssdm_op_SpecTopModule(...) {
entry:
  ret void
}

; [#uses=2]
define weak i32 @_ssdm_op_SpecRegionEnd(...) {
entry:
  ret i32 0
}

; [#uses=2]
define weak i32 @_ssdm_op_SpecRegionBegin(...) {
entry:
  ret i32 0
}

; [#uses=1]
define weak void @_ssdm_op_SpecPipeline(...) nounwind {
entry:
  ret void
}

; [#uses=2]
define weak i32 @_ssdm_op_SpecMemCore(...) {
entry:
  ret i32 0
}

; [#uses=2]
define weak i32 @_ssdm_op_SpecLoopTripCount(...) {
entry:
  ret i32 0
}

; [#uses=2]
define weak void @_ssdm_op_SpecLoopName(...) nounwind {
entry:
  ret void
}

; [#uses=4]
define weak void @_ssdm_op_SpecInterface(...) nounwind {
entry:
  ret void
}

; [#uses=3]
define weak void @_ssdm_op_SpecBitsMap(...) {
entry:
  ret void
}

; [#uses=1]
define weak i1 @_ssdm_op_BitSelect.i1.i15.i32(i15, i32) nounwind readnone {
entry:
  %empty = trunc i32 %1 to i15                    ; [#uses=1 type=i15]
  %empty_7 = shl i15 1, %empty                    ; [#uses=1 type=i15]
  %empty_8 = and i15 %0, %empty_7                 ; [#uses=1 type=i15]
  %empty_9 = icmp ne i15 %empty_8, 0              ; [#uses=1 type=i1]
  ret i1 %empty_9
}

; [#uses=3]
define weak i12 @_ssdm_op_BitConcatenate.i12.i6.i6(i6, i6) nounwind readnone {
entry:
  %empty = zext i6 %0 to i12                      ; [#uses=1 type=i12]
  %empty_10 = zext i6 %1 to i12                   ; [#uses=1 type=i12]
  %empty_11 = shl i12 %empty, 6                   ; [#uses=1 type=i12]
  %empty_12 = or i12 %empty_11, %empty_10         ; [#uses=1 type=i12]
  ret i12 %empty_12
}

; [#uses=3]
define weak i10 @_ssdm_op_BitConcatenate.i10.i6.i4(i6, i4) nounwind readnone {
entry:
  %empty = zext i6 %0 to i10                      ; [#uses=1 type=i10]
  %empty_13 = zext i4 %1 to i10                   ; [#uses=1 type=i10]
  %empty_14 = shl i10 %empty, 4                   ; [#uses=1 type=i10]
  %empty_15 = or i10 %empty_14, %empty_13         ; [#uses=1 type=i10]
  ret i10 %empty_15
}

; [#uses=1]
declare void @_GLOBAL__I_a() nounwind

!opencl.kernels = !{!0, !7, !13, !13, !16, !16, !22, !22, !16, !16, !24, !25, !31, !31, !16, !33, !16, !16, !16, !36, !36, !38, !38, !40, !42, !43, !45, !47, !47, !16, !49, !16, !16, !16, !51, !51, !53, !53, !55, !55}
!hls.encrypted.func = !{}
!llvm.map.gv = !{!57}

!0 = metadata !{null, metadata !1, metadata !2, metadata !3, metadata !4, metadata !5, metadata !6}
!1 = metadata !{metadata !"kernel_arg_addr_space", i32 1, i32 1, i32 1}
!2 = metadata !{metadata !"kernel_arg_access_qual", metadata !"none", metadata !"none", metadata !"none"}
!3 = metadata !{metadata !"kernel_arg_type", metadata !"img_t [48]*", metadata !"window_t [3]*", metadata !"result_t [46]*"}
!4 = metadata !{metadata !"kernel_arg_type_qual", metadata !"", metadata !"", metadata !""}
!5 = metadata !{metadata !"kernel_arg_name", metadata !"img", metadata !"window", metadata !"res"}
!6 = metadata !{metadata !"reqd_work_group_size", i32 1, i32 1, i32 1}
!7 = metadata !{null, metadata !8, metadata !9, metadata !10, metadata !11, metadata !12, metadata !6}
!8 = metadata !{metadata !"kernel_arg_addr_space", i32 0}
!9 = metadata !{metadata !"kernel_arg_access_qual", metadata !"none"}
!10 = metadata !{metadata !"kernel_arg_type", metadata !"const ap_uint<15> &"}
!11 = metadata !{metadata !"kernel_arg_type_qual", metadata !""}
!12 = metadata !{metadata !"kernel_arg_name", metadata !"op2"}
!13 = metadata !{null, metadata !8, metadata !9, metadata !14, metadata !11, metadata !15, metadata !6}
!14 = metadata !{metadata !"kernel_arg_type", metadata !"const ap_int<16> &"}
!15 = metadata !{metadata !"kernel_arg_name", metadata !"op"}
!16 = metadata !{null, metadata !17, metadata !18, metadata !19, metadata !20, metadata !21, metadata !6}
!17 = metadata !{metadata !"kernel_arg_addr_space"}
!18 = metadata !{metadata !"kernel_arg_access_qual"}
!19 = metadata !{metadata !"kernel_arg_type"}
!20 = metadata !{metadata !"kernel_arg_type_qual"}
!21 = metadata !{metadata !"kernel_arg_name"}
!22 = metadata !{null, metadata !8, metadata !9, metadata !23, metadata !11, metadata !15, metadata !6}
!23 = metadata !{metadata !"kernel_arg_type", metadata !"const ap_int_base<48, true> &"}
!24 = metadata !{null, metadata !8, metadata !9, metadata !14, metadata !11, metadata !12, metadata !6}
!25 = metadata !{null, metadata !26, metadata !27, metadata !28, metadata !29, metadata !30, metadata !6}
!26 = metadata !{metadata !"kernel_arg_addr_space", i32 0, i32 0}
!27 = metadata !{metadata !"kernel_arg_access_qual", metadata !"none", metadata !"none"}
!28 = metadata !{metadata !"kernel_arg_type", metadata !"int", metadata !"const ap_int_base<16, true> &"}
!29 = metadata !{metadata !"kernel_arg_type_qual", metadata !"", metadata !""}
!30 = metadata !{metadata !"kernel_arg_name", metadata !"i_op", metadata !"op"}
!31 = metadata !{null, metadata !8, metadata !9, metadata !32, metadata !11, metadata !15, metadata !6}
!32 = metadata !{metadata !"kernel_arg_type", metadata !"int"}
!33 = metadata !{null, metadata !26, metadata !27, metadata !34, metadata !29, metadata !35, metadata !6}
!34 = metadata !{metadata !"kernel_arg_type", metadata !"const ap_int_base<32, true> &", metadata !"const ap_int_base<16, true> &"}
!35 = metadata !{metadata !"kernel_arg_name", metadata !"op", metadata !"op2"}
!36 = metadata !{null, metadata !8, metadata !9, metadata !37, metadata !11, metadata !15, metadata !6}
!37 = metadata !{metadata !"kernel_arg_type", metadata !"const ap_int_base<16, true> &"}
!38 = metadata !{null, metadata !8, metadata !9, metadata !39, metadata !11, metadata !15, metadata !6}
!39 = metadata !{metadata !"kernel_arg_type", metadata !"const ap_int_base<32, true> &"}
!40 = metadata !{null, metadata !26, metadata !27, metadata !41, metadata !29, metadata !35, metadata !6}
!41 = metadata !{metadata !"kernel_arg_type", metadata !"const ap_int_base<16, true> &", metadata !"int"}
!42 = metadata !{null, metadata !8, metadata !9, metadata !39, metadata !11, metadata !12, metadata !6}
!43 = metadata !{null, metadata !8, metadata !9, metadata !44, metadata !11, metadata !12, metadata !6}
!44 = metadata !{metadata !"kernel_arg_type", metadata !"const ap_int_base<11, true> &"}
!45 = metadata !{null, metadata !26, metadata !27, metadata !46, metadata !29, metadata !30, metadata !6}
!46 = metadata !{metadata !"kernel_arg_type", metadata !"uchar", metadata !"const ap_int_base<3, true> &"}
!47 = metadata !{null, metadata !8, metadata !9, metadata !48, metadata !11, metadata !15, metadata !6}
!48 = metadata !{metadata !"kernel_arg_type", metadata !"uchar"}
!49 = metadata !{null, metadata !26, metadata !27, metadata !50, metadata !29, metadata !35, metadata !6}
!50 = metadata !{metadata !"kernel_arg_type", metadata !"const ap_int_base<8, false> &", metadata !"const ap_int_base<3, true> &"}
!51 = metadata !{null, metadata !8, metadata !9, metadata !52, metadata !11, metadata !15, metadata !6}
!52 = metadata !{metadata !"kernel_arg_type", metadata !"const ap_int_base<3, true> &"}
!53 = metadata !{null, metadata !8, metadata !9, metadata !54, metadata !11, metadata !15, metadata !6}
!54 = metadata !{metadata !"kernel_arg_type", metadata !"const ap_int_base<8, false> &"}
!55 = metadata !{null, metadata !8, metadata !9, metadata !32, metadata !11, metadata !56, metadata !6}
!56 = metadata !{metadata !"kernel_arg_name", metadata !"val"}
!57 = metadata !{metadata !58, [1 x i32]* @llvm_global_ctors_0}
!58 = metadata !{metadata !59}
!59 = metadata !{i32 0, i32 31, metadata !60}
!60 = metadata !{metadata !61}
!61 = metadata !{metadata !"llvm.global_ctors.0", metadata !62, metadata !"", i32 0, i32 31}
!62 = metadata !{metadata !63}
!63 = metadata !{i32 0, i32 0, i32 1}
!64 = metadata !{i32 1451, i32 95, metadata !65, metadata !1154}
!65 = metadata !{i32 786443, metadata !66, i32 1451, i32 93, metadata !67, i32 34} ; [ DW_TAG_lexical_block ]
!66 = metadata !{i32 786478, i32 0, null, metadata !"ap_int_base<3, true>", metadata !"ap_int_base<3, true>", metadata !"_ZN11ap_int_baseILi11ELb1ELb1EEC2ILi3ELb1EEERKS_IXT_EXT0_EXleT_Li64EEE", metadata !67, i32 1451, metadata !68, i1 false, i1 true, i32 0, i32 0, null, i32 256, i1 false, null, metadata !1152, null, metadata !83, i32 1451} ; [ DW_TAG_subprogram ]
!67 = metadata !{i32 786473, metadata !"C:/Xilinx/Vivado_HLS/2017.2/common/technology/autopilot/ap_int_syn.h", metadata !"C:\5CUsers\5Cjonas\5Csource\5Crepos\5CERTS\5CMini_Project\5CHLS", null} ; [ DW_TAG_file_type ]
!68 = metadata !{i32 786453, i32 0, metadata !"", i32 0, i32 0, i64 0, i64 0, i64 0, i32 0, null, metadata !69, i32 0, i32 0} ; [ DW_TAG_subroutine_type ]
!69 = metadata !{null, metadata !70, metadata !906}
!70 = metadata !{i32 786447, i32 0, metadata !"", i32 0, i32 0, i64 32, i64 32, i64 0, i32 64, metadata !71} ; [ DW_TAG_pointer_type ]
!71 = metadata !{i32 786434, null, metadata !"ap_int_base<11, true, true>", metadata !67, i32 1398, i64 16, i64 16, i32 0, i32 0, null, metadata !72, i32 0, null, metadata !904} ; [ DW_TAG_class_type ]
!72 = metadata !{metadata !73, metadata !90, metadata !93, metadata !101, metadata !107, metadata !110, metadata !114, metadata !118, metadata !122, metadata !126, metadata !129, metadata !133, metadata !137, metadata !141, metadata !146, metadata !151, metadata !156, metadata !160, metadata !164, metadata !170, metadata !173, metadata !177, metadata !180, metadata !183, metadata !184, metadata !188, metadata !191, metadata !194, metadata !197, metadata !200, metadata !203, metadata !206, metadata !209, metadata !212, metadata !215, metadata !218, metadata !221, metadata !231, metadata !234, metadata !237, metadata !240, metadata !243, metadata !246, metadata !249, metadata !252, metadata !255, metadata !258, metadata !261, metadata !264, metadata !267, metadata !268, metadata !272, metadata !275, metadata !276, metadata !277, metadata !278, metadata !279, metadata !280, metadata !283, metadata !284, metadata !287, metadata !288, metadata !289, metadata !290, metadata !291, metadata !292, metadata !295, metadata !296, metadata !297, metadata !300, metadata !301, metadata !304, metadata !305, metadata !864, metadata !868, metadata !869, metadata !872, metadata !873, metadata !877, metadata !878, metadata !879, metadata !880, metadata !883, metadata !884, metadata !885, metadata !886, metadata !887, metadata !888, metadata !889, metadata !890, metadata !891, metadata !892, metadata !893, metadata !894, metadata !897, metadata !900, metadata !903}
!73 = metadata !{i32 786460, metadata !71, null, metadata !67, i32 0, i64 0, i64 0, i64 0, i32 0, metadata !74} ; [ DW_TAG_inheritance ]
!74 = metadata !{i32 786434, null, metadata !"ssdm_int<11 + 1024 * 0, true>", metadata !75, i32 13, i64 16, i64 16, i32 0, i32 0, null, metadata !76, i32 0, null, metadata !85} ; [ DW_TAG_class_type ]
!75 = metadata !{i32 786473, metadata !"C:/Xilinx/Vivado_HLS/2017.2/common/technology/autopilot/etc/autopilot_dt.def", metadata !"C:\5CUsers\5Cjonas\5Csource\5Crepos\5CERTS\5CMini_Project\5CHLS", null} ; [ DW_TAG_file_type ]
!76 = metadata !{metadata !77, metadata !79}
!77 = metadata !{i32 786445, metadata !74, metadata !"V", metadata !75, i32 13, i64 11, i64 16, i64 0, i32 0, metadata !78} ; [ DW_TAG_member ]
!78 = metadata !{i32 786468, null, metadata !"int11", null, i32 0, i64 11, i64 16, i64 0, i32 0, i32 5} ; [ DW_TAG_base_type ]
!79 = metadata !{i32 786478, i32 0, metadata !74, metadata !"ssdm_int", metadata !"ssdm_int", metadata !"", metadata !75, i32 13, metadata !80, i1 false, i1 false, i32 0, i32 0, null, i32 256, i1 false, null, null, i32 0, metadata !83, i32 13} ; [ DW_TAG_subprogram ]
!80 = metadata !{i32 786453, i32 0, metadata !"", i32 0, i32 0, i64 0, i64 0, i64 0, i32 0, null, metadata !81, i32 0, i32 0} ; [ DW_TAG_subroutine_type ]
!81 = metadata !{null, metadata !82}
!82 = metadata !{i32 786447, i32 0, metadata !"", i32 0, i32 0, i64 32, i64 32, i64 0, i32 64, metadata !74} ; [ DW_TAG_pointer_type ]
!83 = metadata !{metadata !84}
!84 = metadata !{i32 786468}                      ; [ DW_TAG_base_type ]
!85 = metadata !{metadata !86, metadata !88}
!86 = metadata !{i32 786480, null, metadata !"_AP_N", metadata !87, i64 11, null, i32 0, i32 0} ; [ DW_TAG_template_value_parameter ]
!87 = metadata !{i32 786468, null, metadata !"int", null, i32 0, i64 32, i64 32, i64 0, i32 0, i32 5} ; [ DW_TAG_base_type ]
!88 = metadata !{i32 786480, null, metadata !"_AP_S", metadata !89, i64 1, null, i32 0, i32 0} ; [ DW_TAG_template_value_parameter ]
!89 = metadata !{i32 786468, null, metadata !"bool", null, i32 0, i64 8, i64 8, i64 0, i32 0, i32 2} ; [ DW_TAG_base_type ]
!90 = metadata !{i32 786478, i32 0, metadata !71, metadata !"ap_int_base", metadata !"ap_int_base", metadata !"", metadata !67, i32 1439, metadata !91, i1 false, i1 false, i32 0, i32 0, null, i32 256, i1 false, null, null, i32 0, metadata !83, i32 1439} ; [ DW_TAG_subprogram ]
!91 = metadata !{i32 786453, i32 0, metadata !"", i32 0, i32 0, i64 0, i64 0, i64 0, i32 0, null, metadata !92, i32 0, i32 0} ; [ DW_TAG_subroutine_type ]
!92 = metadata !{null, metadata !70}
!93 = metadata !{i32 786478, i32 0, metadata !71, metadata !"ap_int_base<11, true>", metadata !"ap_int_base<11, true>", metadata !"", metadata !67, i32 1451, metadata !94, i1 false, i1 false, i32 0, i32 0, null, i32 256, i1 false, null, metadata !98, i32 0, metadata !83, i32 1451} ; [ DW_TAG_subprogram ]
!94 = metadata !{i32 786453, i32 0, metadata !"", i32 0, i32 0, i64 0, i64 0, i64 0, i32 0, null, metadata !95, i32 0, i32 0} ; [ DW_TAG_subroutine_type ]
!95 = metadata !{null, metadata !70, metadata !96}
!96 = metadata !{i32 786448, null, null, null, i32 0, i64 0, i64 0, i64 0, i32 0, metadata !97} ; [ DW_TAG_reference_type ]
!97 = metadata !{i32 786470, null, metadata !"", null, i32 0, i64 0, i64 0, i64 0, i32 0, metadata !71} ; [ DW_TAG_const_type ]
!98 = metadata !{metadata !99, metadata !100}
!99 = metadata !{i32 786480, null, metadata !"_AP_W2", metadata !87, i64 11, null, i32 0, i32 0} ; [ DW_TAG_template_value_parameter ]
!100 = metadata !{i32 786480, null, metadata !"_AP_S2", metadata !89, i64 1, null, i32 0, i32 0} ; [ DW_TAG_template_value_parameter ]
!101 = metadata !{i32 786478, i32 0, metadata !71, metadata !"ap_int_base<11, true>", metadata !"ap_int_base<11, true>", metadata !"", metadata !67, i32 1454, metadata !102, i1 false, i1 false, i32 0, i32 0, null, i32 256, i1 false, null, metadata !98, i32 0, metadata !83, i32 1454} ; [ DW_TAG_subprogram ]
!102 = metadata !{i32 786453, i32 0, metadata !"", i32 0, i32 0, i64 0, i64 0, i64 0, i32 0, null, metadata !103, i32 0, i32 0} ; [ DW_TAG_subroutine_type ]
!103 = metadata !{null, metadata !70, metadata !104}
!104 = metadata !{i32 786448, null, null, null, i32 0, i64 0, i64 0, i64 0, i32 0, metadata !105} ; [ DW_TAG_reference_type ]
!105 = metadata !{i32 786470, null, metadata !"", null, i32 0, i64 0, i64 0, i64 0, i32 0, metadata !106} ; [ DW_TAG_const_type ]
!106 = metadata !{i32 786485, null, metadata !"", null, i32 0, i64 0, i64 0, i64 0, i32 0, metadata !71} ; [ DW_TAG_volatile_type ]
!107 = metadata !{i32 786478, i32 0, metadata !71, metadata !"ap_int_base", metadata !"ap_int_base", metadata !"", metadata !67, i32 1461, metadata !108, i1 false, i1 false, i32 0, i32 0, null, i32 384, i1 false, null, null, i32 0, metadata !83, i32 1461} ; [ DW_TAG_subprogram ]
!108 = metadata !{i32 786453, i32 0, metadata !"", i32 0, i32 0, i64 0, i64 0, i64 0, i32 0, null, metadata !109, i32 0, i32 0} ; [ DW_TAG_subroutine_type ]
!109 = metadata !{null, metadata !70, metadata !89}
!110 = metadata !{i32 786478, i32 0, metadata !71, metadata !"ap_int_base", metadata !"ap_int_base", metadata !"", metadata !67, i32 1462, metadata !111, i1 false, i1 false, i32 0, i32 0, null, i32 384, i1 false, null, null, i32 0, metadata !83, i32 1462} ; [ DW_TAG_subprogram ]
!111 = metadata !{i32 786453, i32 0, metadata !"", i32 0, i32 0, i64 0, i64 0, i64 0, i32 0, null, metadata !112, i32 0, i32 0} ; [ DW_TAG_subroutine_type ]
!112 = metadata !{null, metadata !70, metadata !113}
!113 = metadata !{i32 786468, null, metadata !"signed char", null, i32 0, i64 8, i64 8, i64 0, i32 0, i32 6} ; [ DW_TAG_base_type ]
!114 = metadata !{i32 786478, i32 0, metadata !71, metadata !"ap_int_base", metadata !"ap_int_base", metadata !"", metadata !67, i32 1463, metadata !115, i1 false, i1 false, i32 0, i32 0, null, i32 384, i1 false, null, null, i32 0, metadata !83, i32 1463} ; [ DW_TAG_subprogram ]
!115 = metadata !{i32 786453, i32 0, metadata !"", i32 0, i32 0, i64 0, i64 0, i64 0, i32 0, null, metadata !116, i32 0, i32 0} ; [ DW_TAG_subroutine_type ]
!116 = metadata !{null, metadata !70, metadata !117}
!117 = metadata !{i32 786468, null, metadata !"unsigned char", null, i32 0, i64 8, i64 8, i64 0, i32 0, i32 8} ; [ DW_TAG_base_type ]
!118 = metadata !{i32 786478, i32 0, metadata !71, metadata !"ap_int_base", metadata !"ap_int_base", metadata !"", metadata !67, i32 1464, metadata !119, i1 false, i1 false, i32 0, i32 0, null, i32 384, i1 false, null, null, i32 0, metadata !83, i32 1464} ; [ DW_TAG_subprogram ]
!119 = metadata !{i32 786453, i32 0, metadata !"", i32 0, i32 0, i64 0, i64 0, i64 0, i32 0, null, metadata !120, i32 0, i32 0} ; [ DW_TAG_subroutine_type ]
!120 = metadata !{null, metadata !70, metadata !121}
!121 = metadata !{i32 786468, null, metadata !"short", null, i32 0, i64 16, i64 16, i64 0, i32 0, i32 5} ; [ DW_TAG_base_type ]
!122 = metadata !{i32 786478, i32 0, metadata !71, metadata !"ap_int_base", metadata !"ap_int_base", metadata !"", metadata !67, i32 1465, metadata !123, i1 false, i1 false, i32 0, i32 0, null, i32 384, i1 false, null, null, i32 0, metadata !83, i32 1465} ; [ DW_TAG_subprogram ]
!123 = metadata !{i32 786453, i32 0, metadata !"", i32 0, i32 0, i64 0, i64 0, i64 0, i32 0, null, metadata !124, i32 0, i32 0} ; [ DW_TAG_subroutine_type ]
!124 = metadata !{null, metadata !70, metadata !125}
!125 = metadata !{i32 786468, null, metadata !"unsigned short", null, i32 0, i64 16, i64 16, i64 0, i32 0, i32 7} ; [ DW_TAG_base_type ]
!126 = metadata !{i32 786478, i32 0, metadata !71, metadata !"ap_int_base", metadata !"ap_int_base", metadata !"", metadata !67, i32 1466, metadata !127, i1 false, i1 false, i32 0, i32 0, null, i32 384, i1 false, null, null, i32 0, metadata !83, i32 1466} ; [ DW_TAG_subprogram ]
!127 = metadata !{i32 786453, i32 0, metadata !"", i32 0, i32 0, i64 0, i64 0, i64 0, i32 0, null, metadata !128, i32 0, i32 0} ; [ DW_TAG_subroutine_type ]
!128 = metadata !{null, metadata !70, metadata !87}
!129 = metadata !{i32 786478, i32 0, metadata !71, metadata !"ap_int_base", metadata !"ap_int_base", metadata !"", metadata !67, i32 1467, metadata !130, i1 false, i1 false, i32 0, i32 0, null, i32 384, i1 false, null, null, i32 0, metadata !83, i32 1467} ; [ DW_TAG_subprogram ]
!130 = metadata !{i32 786453, i32 0, metadata !"", i32 0, i32 0, i64 0, i64 0, i64 0, i32 0, null, metadata !131, i32 0, i32 0} ; [ DW_TAG_subroutine_type ]
!131 = metadata !{null, metadata !70, metadata !132}
!132 = metadata !{i32 786468, null, metadata !"unsigned int", null, i32 0, i64 32, i64 32, i64 0, i32 0, i32 7} ; [ DW_TAG_base_type ]
!133 = metadata !{i32 786478, i32 0, metadata !71, metadata !"ap_int_base", metadata !"ap_int_base", metadata !"", metadata !67, i32 1468, metadata !134, i1 false, i1 false, i32 0, i32 0, null, i32 384, i1 false, null, null, i32 0, metadata !83, i32 1468} ; [ DW_TAG_subprogram ]
!134 = metadata !{i32 786453, i32 0, metadata !"", i32 0, i32 0, i64 0, i64 0, i64 0, i32 0, null, metadata !135, i32 0, i32 0} ; [ DW_TAG_subroutine_type ]
!135 = metadata !{null, metadata !70, metadata !136}
!136 = metadata !{i32 786468, null, metadata !"long int", null, i32 0, i64 32, i64 32, i64 0, i32 0, i32 5} ; [ DW_TAG_base_type ]
!137 = metadata !{i32 786478, i32 0, metadata !71, metadata !"ap_int_base", metadata !"ap_int_base", metadata !"", metadata !67, i32 1469, metadata !138, i1 false, i1 false, i32 0, i32 0, null, i32 384, i1 false, null, null, i32 0, metadata !83, i32 1469} ; [ DW_TAG_subprogram ]
!138 = metadata !{i32 786453, i32 0, metadata !"", i32 0, i32 0, i64 0, i64 0, i64 0, i32 0, null, metadata !139, i32 0, i32 0} ; [ DW_TAG_subroutine_type ]
!139 = metadata !{null, metadata !70, metadata !140}
!140 = metadata !{i32 786468, null, metadata !"long unsigned int", null, i32 0, i64 32, i64 32, i64 0, i32 0, i32 7} ; [ DW_TAG_base_type ]
!141 = metadata !{i32 786478, i32 0, metadata !71, metadata !"ap_int_base", metadata !"ap_int_base", metadata !"", metadata !67, i32 1470, metadata !142, i1 false, i1 false, i32 0, i32 0, null, i32 384, i1 false, null, null, i32 0, metadata !83, i32 1470} ; [ DW_TAG_subprogram ]
!142 = metadata !{i32 786453, i32 0, metadata !"", i32 0, i32 0, i64 0, i64 0, i64 0, i32 0, null, metadata !143, i32 0, i32 0} ; [ DW_TAG_subroutine_type ]
!143 = metadata !{null, metadata !70, metadata !144}
!144 = metadata !{i32 786454, null, metadata !"ap_slong", metadata !67, i32 112, i64 0, i64 0, i64 0, i32 0, metadata !145} ; [ DW_TAG_typedef ]
!145 = metadata !{i32 786468, null, metadata !"long long int", null, i32 0, i64 64, i64 64, i64 0, i32 0, i32 5} ; [ DW_TAG_base_type ]
!146 = metadata !{i32 786478, i32 0, metadata !71, metadata !"ap_int_base", metadata !"ap_int_base", metadata !"", metadata !67, i32 1471, metadata !147, i1 false, i1 false, i32 0, i32 0, null, i32 384, i1 false, null, null, i32 0, metadata !83, i32 1471} ; [ DW_TAG_subprogram ]
!147 = metadata !{i32 786453, i32 0, metadata !"", i32 0, i32 0, i64 0, i64 0, i64 0, i32 0, null, metadata !148, i32 0, i32 0} ; [ DW_TAG_subroutine_type ]
!148 = metadata !{null, metadata !70, metadata !149}
!149 = metadata !{i32 786454, null, metadata !"ap_ulong", metadata !67, i32 111, i64 0, i64 0, i64 0, i32 0, metadata !150} ; [ DW_TAG_typedef ]
!150 = metadata !{i32 786468, null, metadata !"long long unsigned int", null, i32 0, i64 64, i64 64, i64 0, i32 0, i32 7} ; [ DW_TAG_base_type ]
!151 = metadata !{i32 786478, i32 0, metadata !71, metadata !"ap_int_base", metadata !"ap_int_base", metadata !"", metadata !67, i32 1472, metadata !152, i1 false, i1 false, i32 0, i32 0, null, i32 384, i1 false, null, null, i32 0, metadata !83, i32 1472} ; [ DW_TAG_subprogram ]
!152 = metadata !{i32 786453, i32 0, metadata !"", i32 0, i32 0, i64 0, i64 0, i64 0, i32 0, null, metadata !153, i32 0, i32 0} ; [ DW_TAG_subroutine_type ]
!153 = metadata !{null, metadata !70, metadata !154}
!154 = metadata !{i32 786454, null, metadata !"half", metadata !67, i32 54, i64 0, i64 0, i64 0, i32 0, metadata !155} ; [ DW_TAG_typedef ]
!155 = metadata !{i32 786468, null, metadata !"half", null, i32 0, i64 16, i64 16, i64 0, i32 0, i32 4} ; [ DW_TAG_base_type ]
!156 = metadata !{i32 786478, i32 0, metadata !71, metadata !"ap_int_base", metadata !"ap_int_base", metadata !"", metadata !67, i32 1473, metadata !157, i1 false, i1 false, i32 0, i32 0, null, i32 384, i1 false, null, null, i32 0, metadata !83, i32 1473} ; [ DW_TAG_subprogram ]
!157 = metadata !{i32 786453, i32 0, metadata !"", i32 0, i32 0, i64 0, i64 0, i64 0, i32 0, null, metadata !158, i32 0, i32 0} ; [ DW_TAG_subroutine_type ]
!158 = metadata !{null, metadata !70, metadata !159}
!159 = metadata !{i32 786468, null, metadata !"float", null, i32 0, i64 32, i64 32, i64 0, i32 0, i32 4} ; [ DW_TAG_base_type ]
!160 = metadata !{i32 786478, i32 0, metadata !71, metadata !"ap_int_base", metadata !"ap_int_base", metadata !"", metadata !67, i32 1474, metadata !161, i1 false, i1 false, i32 0, i32 0, null, i32 384, i1 false, null, null, i32 0, metadata !83, i32 1474} ; [ DW_TAG_subprogram ]
!161 = metadata !{i32 786453, i32 0, metadata !"", i32 0, i32 0, i64 0, i64 0, i64 0, i32 0, null, metadata !162, i32 0, i32 0} ; [ DW_TAG_subroutine_type ]
!162 = metadata !{null, metadata !70, metadata !163}
!163 = metadata !{i32 786468, null, metadata !"double", null, i32 0, i64 64, i64 64, i64 0, i32 0, i32 4} ; [ DW_TAG_base_type ]
!164 = metadata !{i32 786478, i32 0, metadata !71, metadata !"ap_int_base", metadata !"ap_int_base", metadata !"", metadata !67, i32 1501, metadata !165, i1 false, i1 false, i32 0, i32 0, null, i32 256, i1 false, null, null, i32 0, metadata !83, i32 1501} ; [ DW_TAG_subprogram ]
!165 = metadata !{i32 786453, i32 0, metadata !"", i32 0, i32 0, i64 0, i64 0, i64 0, i32 0, null, metadata !166, i32 0, i32 0} ; [ DW_TAG_subroutine_type ]
!166 = metadata !{null, metadata !70, metadata !167}
!167 = metadata !{i32 786447, null, metadata !"", null, i32 0, i64 32, i64 32, i64 0, i32 0, metadata !168} ; [ DW_TAG_pointer_type ]
!168 = metadata !{i32 786470, null, metadata !"", null, i32 0, i64 0, i64 0, i64 0, i32 0, metadata !169} ; [ DW_TAG_const_type ]
!169 = metadata !{i32 786468, null, metadata !"char", null, i32 0, i64 8, i64 8, i64 0, i32 0, i32 6} ; [ DW_TAG_base_type ]
!170 = metadata !{i32 786478, i32 0, metadata !71, metadata !"ap_int_base", metadata !"ap_int_base", metadata !"", metadata !67, i32 1508, metadata !171, i1 false, i1 false, i32 0, i32 0, null, i32 256, i1 false, null, null, i32 0, metadata !83, i32 1508} ; [ DW_TAG_subprogram ]
!171 = metadata !{i32 786453, i32 0, metadata !"", i32 0, i32 0, i64 0, i64 0, i64 0, i32 0, null, metadata !172, i32 0, i32 0} ; [ DW_TAG_subroutine_type ]
!172 = metadata !{null, metadata !70, metadata !167, metadata !113}
!173 = metadata !{i32 786478, i32 0, metadata !71, metadata !"read", metadata !"read", metadata !"_ZNV11ap_int_baseILi11ELb1ELb1EE4readEv", metadata !67, i32 1529, metadata !174, i1 false, i1 false, i32 0, i32 0, null, i32 256, i1 false, null, null, i32 0, metadata !83, i32 1529} ; [ DW_TAG_subprogram ]
!174 = metadata !{i32 786453, i32 0, metadata !"", i32 0, i32 0, i64 0, i64 0, i64 0, i32 0, null, metadata !175, i32 0, i32 0} ; [ DW_TAG_subroutine_type ]
!175 = metadata !{metadata !71, metadata !176}
!176 = metadata !{i32 786447, i32 0, metadata !"", i32 0, i32 0, i64 32, i64 32, i64 0, i32 64, metadata !106} ; [ DW_TAG_pointer_type ]
!177 = metadata !{i32 786478, i32 0, metadata !71, metadata !"write", metadata !"write", metadata !"_ZNV11ap_int_baseILi11ELb1ELb1EE5writeERKS0_", metadata !67, i32 1535, metadata !178, i1 false, i1 false, i32 0, i32 0, null, i32 256, i1 false, null, null, i32 0, metadata !83, i32 1535} ; [ DW_TAG_subprogram ]
!178 = metadata !{i32 786453, i32 0, metadata !"", i32 0, i32 0, i64 0, i64 0, i64 0, i32 0, null, metadata !179, i32 0, i32 0} ; [ DW_TAG_subroutine_type ]
!179 = metadata !{null, metadata !176, metadata !96}
!180 = metadata !{i32 786478, i32 0, metadata !71, metadata !"operator=", metadata !"operator=", metadata !"_ZNV11ap_int_baseILi11ELb1ELb1EEaSERVKS0_", metadata !67, i32 1547, metadata !181, i1 false, i1 false, i32 0, i32 0, null, i32 256, i1 false, null, null, i32 0, metadata !83, i32 1547} ; [ DW_TAG_subprogram ]
!181 = metadata !{i32 786453, i32 0, metadata !"", i32 0, i32 0, i64 0, i64 0, i64 0, i32 0, null, metadata !182, i32 0, i32 0} ; [ DW_TAG_subroutine_type ]
!182 = metadata !{null, metadata !176, metadata !104}
!183 = metadata !{i32 786478, i32 0, metadata !71, metadata !"operator=", metadata !"operator=", metadata !"_ZNV11ap_int_baseILi11ELb1ELb1EEaSERKS0_", metadata !67, i32 1556, metadata !178, i1 false, i1 false, i32 0, i32 0, null, i32 256, i1 false, null, null, i32 0, metadata !83, i32 1556} ; [ DW_TAG_subprogram ]
!184 = metadata !{i32 786478, i32 0, metadata !71, metadata !"operator=", metadata !"operator=", metadata !"_ZN11ap_int_baseILi11ELb1ELb1EEaSERVKS0_", metadata !67, i32 1579, metadata !185, i1 false, i1 false, i32 0, i32 0, null, i32 256, i1 false, null, null, i32 0, metadata !83, i32 1579} ; [ DW_TAG_subprogram ]
!185 = metadata !{i32 786453, i32 0, metadata !"", i32 0, i32 0, i64 0, i64 0, i64 0, i32 0, null, metadata !186, i32 0, i32 0} ; [ DW_TAG_subroutine_type ]
!186 = metadata !{metadata !187, metadata !70, metadata !104}
!187 = metadata !{i32 786448, null, null, null, i32 0, i64 0, i64 0, i64 0, i32 0, metadata !71} ; [ DW_TAG_reference_type ]
!188 = metadata !{i32 786478, i32 0, metadata !71, metadata !"operator=", metadata !"operator=", metadata !"_ZN11ap_int_baseILi11ELb1ELb1EEaSERKS0_", metadata !67, i32 1584, metadata !189, i1 false, i1 false, i32 0, i32 0, null, i32 256, i1 false, null, null, i32 0, metadata !83, i32 1584} ; [ DW_TAG_subprogram ]
!189 = metadata !{i32 786453, i32 0, metadata !"", i32 0, i32 0, i64 0, i64 0, i64 0, i32 0, null, metadata !190, i32 0, i32 0} ; [ DW_TAG_subroutine_type ]
!190 = metadata !{metadata !187, metadata !70, metadata !96}
!191 = metadata !{i32 786478, i32 0, metadata !71, metadata !"operator=", metadata !"operator=", metadata !"_ZN11ap_int_baseILi11ELb1ELb1EEaSEPKc", metadata !67, i32 1588, metadata !192, i1 false, i1 false, i32 0, i32 0, null, i32 256, i1 false, null, null, i32 0, metadata !83, i32 1588} ; [ DW_TAG_subprogram ]
!192 = metadata !{i32 786453, i32 0, metadata !"", i32 0, i32 0, i64 0, i64 0, i64 0, i32 0, null, metadata !193, i32 0, i32 0} ; [ DW_TAG_subroutine_type ]
!193 = metadata !{metadata !187, metadata !70, metadata !167}
!194 = metadata !{i32 786478, i32 0, metadata !71, metadata !"set", metadata !"set", metadata !"_ZN11ap_int_baseILi11ELb1ELb1EE3setEPKca", metadata !67, i32 1596, metadata !195, i1 false, i1 false, i32 0, i32 0, null, i32 256, i1 false, null, null, i32 0, metadata !83, i32 1596} ; [ DW_TAG_subprogram ]
!195 = metadata !{i32 786453, i32 0, metadata !"", i32 0, i32 0, i64 0, i64 0, i64 0, i32 0, null, metadata !196, i32 0, i32 0} ; [ DW_TAG_subroutine_type ]
!196 = metadata !{metadata !187, metadata !70, metadata !167, metadata !113}
!197 = metadata !{i32 786478, i32 0, metadata !71, metadata !"operator=", metadata !"operator=", metadata !"_ZN11ap_int_baseILi11ELb1ELb1EEaSEa", metadata !67, i32 1610, metadata !198, i1 false, i1 false, i32 0, i32 0, null, i32 256, i1 false, null, null, i32 0, metadata !83, i32 1610} ; [ DW_TAG_subprogram ]
!198 = metadata !{i32 786453, i32 0, metadata !"", i32 0, i32 0, i64 0, i64 0, i64 0, i32 0, null, metadata !199, i32 0, i32 0} ; [ DW_TAG_subroutine_type ]
!199 = metadata !{metadata !187, metadata !70, metadata !113}
!200 = metadata !{i32 786478, i32 0, metadata !71, metadata !"operator=", metadata !"operator=", metadata !"_ZN11ap_int_baseILi11ELb1ELb1EEaSEh", metadata !67, i32 1611, metadata !201, i1 false, i1 false, i32 0, i32 0, null, i32 256, i1 false, null, null, i32 0, metadata !83, i32 1611} ; [ DW_TAG_subprogram ]
!201 = metadata !{i32 786453, i32 0, metadata !"", i32 0, i32 0, i64 0, i64 0, i64 0, i32 0, null, metadata !202, i32 0, i32 0} ; [ DW_TAG_subroutine_type ]
!202 = metadata !{metadata !187, metadata !70, metadata !117}
!203 = metadata !{i32 786478, i32 0, metadata !71, metadata !"operator=", metadata !"operator=", metadata !"_ZN11ap_int_baseILi11ELb1ELb1EEaSEs", metadata !67, i32 1612, metadata !204, i1 false, i1 false, i32 0, i32 0, null, i32 256, i1 false, null, null, i32 0, metadata !83, i32 1612} ; [ DW_TAG_subprogram ]
!204 = metadata !{i32 786453, i32 0, metadata !"", i32 0, i32 0, i64 0, i64 0, i64 0, i32 0, null, metadata !205, i32 0, i32 0} ; [ DW_TAG_subroutine_type ]
!205 = metadata !{metadata !187, metadata !70, metadata !121}
!206 = metadata !{i32 786478, i32 0, metadata !71, metadata !"operator=", metadata !"operator=", metadata !"_ZN11ap_int_baseILi11ELb1ELb1EEaSEt", metadata !67, i32 1613, metadata !207, i1 false, i1 false, i32 0, i32 0, null, i32 256, i1 false, null, null, i32 0, metadata !83, i32 1613} ; [ DW_TAG_subprogram ]
!207 = metadata !{i32 786453, i32 0, metadata !"", i32 0, i32 0, i64 0, i64 0, i64 0, i32 0, null, metadata !208, i32 0, i32 0} ; [ DW_TAG_subroutine_type ]
!208 = metadata !{metadata !187, metadata !70, metadata !125}
!209 = metadata !{i32 786478, i32 0, metadata !71, metadata !"operator=", metadata !"operator=", metadata !"_ZN11ap_int_baseILi11ELb1ELb1EEaSEi", metadata !67, i32 1614, metadata !210, i1 false, i1 false, i32 0, i32 0, null, i32 256, i1 false, null, null, i32 0, metadata !83, i32 1614} ; [ DW_TAG_subprogram ]
!210 = metadata !{i32 786453, i32 0, metadata !"", i32 0, i32 0, i64 0, i64 0, i64 0, i32 0, null, metadata !211, i32 0, i32 0} ; [ DW_TAG_subroutine_type ]
!211 = metadata !{metadata !187, metadata !70, metadata !87}
!212 = metadata !{i32 786478, i32 0, metadata !71, metadata !"operator=", metadata !"operator=", metadata !"_ZN11ap_int_baseILi11ELb1ELb1EEaSEj", metadata !67, i32 1615, metadata !213, i1 false, i1 false, i32 0, i32 0, null, i32 256, i1 false, null, null, i32 0, metadata !83, i32 1615} ; [ DW_TAG_subprogram ]
!213 = metadata !{i32 786453, i32 0, metadata !"", i32 0, i32 0, i64 0, i64 0, i64 0, i32 0, null, metadata !214, i32 0, i32 0} ; [ DW_TAG_subroutine_type ]
!214 = metadata !{metadata !187, metadata !70, metadata !132}
!215 = metadata !{i32 786478, i32 0, metadata !71, metadata !"operator=", metadata !"operator=", metadata !"_ZN11ap_int_baseILi11ELb1ELb1EEaSEx", metadata !67, i32 1616, metadata !216, i1 false, i1 false, i32 0, i32 0, null, i32 256, i1 false, null, null, i32 0, metadata !83, i32 1616} ; [ DW_TAG_subprogram ]
!216 = metadata !{i32 786453, i32 0, metadata !"", i32 0, i32 0, i64 0, i64 0, i64 0, i32 0, null, metadata !217, i32 0, i32 0} ; [ DW_TAG_subroutine_type ]
!217 = metadata !{metadata !187, metadata !70, metadata !144}
!218 = metadata !{i32 786478, i32 0, metadata !71, metadata !"operator=", metadata !"operator=", metadata !"_ZN11ap_int_baseILi11ELb1ELb1EEaSEy", metadata !67, i32 1617, metadata !219, i1 false, i1 false, i32 0, i32 0, null, i32 256, i1 false, null, null, i32 0, metadata !83, i32 1617} ; [ DW_TAG_subprogram ]
!219 = metadata !{i32 786453, i32 0, metadata !"", i32 0, i32 0, i64 0, i64 0, i64 0, i32 0, null, metadata !220, i32 0, i32 0} ; [ DW_TAG_subroutine_type ]
!220 = metadata !{metadata !187, metadata !70, metadata !149}
!221 = metadata !{i32 786478, i32 0, metadata !71, metadata !"operator short", metadata !"operator short", metadata !"_ZNK11ap_int_baseILi11ELb1ELb1EEcvsEv", metadata !67, i32 1655, metadata !222, i1 false, i1 false, i32 0, i32 0, null, i32 256, i1 false, null, null, i32 0, metadata !83, i32 1655} ; [ DW_TAG_subprogram ]
!222 = metadata !{i32 786453, i32 0, metadata !"", i32 0, i32 0, i64 0, i64 0, i64 0, i32 0, null, metadata !223, i32 0, i32 0} ; [ DW_TAG_subroutine_type ]
!223 = metadata !{metadata !224, metadata !230}
!224 = metadata !{i32 786454, metadata !71, metadata !"RetType", metadata !67, i32 1403, i64 0, i64 0, i64 0, i32 0, metadata !225} ; [ DW_TAG_typedef ]
!225 = metadata !{i32 786454, metadata !226, metadata !"Type", metadata !67, i32 1374, i64 0, i64 0, i64 0, i32 0, metadata !121} ; [ DW_TAG_typedef ]
!226 = metadata !{i32 786434, null, metadata !"retval<2, true>", metadata !67, i32 1373, i64 8, i64 8, i32 0, i32 0, null, metadata !227, i32 0, null, metadata !228} ; [ DW_TAG_class_type ]
!227 = metadata !{i32 0}
!228 = metadata !{metadata !229, metadata !88}
!229 = metadata !{i32 786480, null, metadata !"_AP_N", metadata !87, i64 2, null, i32 0, i32 0} ; [ DW_TAG_template_value_parameter ]
!230 = metadata !{i32 786447, i32 0, metadata !"", i32 0, i32 0, i64 32, i64 32, i64 0, i32 64, metadata !97} ; [ DW_TAG_pointer_type ]
!231 = metadata !{i32 786478, i32 0, metadata !71, metadata !"to_bool", metadata !"to_bool", metadata !"_ZNK11ap_int_baseILi11ELb1ELb1EE7to_boolEv", metadata !67, i32 1661, metadata !232, i1 false, i1 false, i32 0, i32 0, null, i32 256, i1 false, null, null, i32 0, metadata !83, i32 1661} ; [ DW_TAG_subprogram ]
!232 = metadata !{i32 786453, i32 0, metadata !"", i32 0, i32 0, i64 0, i64 0, i64 0, i32 0, null, metadata !233, i32 0, i32 0} ; [ DW_TAG_subroutine_type ]
!233 = metadata !{metadata !89, metadata !230}
!234 = metadata !{i32 786478, i32 0, metadata !71, metadata !"to_uchar", metadata !"to_uchar", metadata !"_ZNK11ap_int_baseILi11ELb1ELb1EE8to_ucharEv", metadata !67, i32 1662, metadata !235, i1 false, i1 false, i32 0, i32 0, null, i32 256, i1 false, null, null, i32 0, metadata !83, i32 1662} ; [ DW_TAG_subprogram ]
!235 = metadata !{i32 786453, i32 0, metadata !"", i32 0, i32 0, i64 0, i64 0, i64 0, i32 0, null, metadata !236, i32 0, i32 0} ; [ DW_TAG_subroutine_type ]
!236 = metadata !{metadata !117, metadata !230}
!237 = metadata !{i32 786478, i32 0, metadata !71, metadata !"to_char", metadata !"to_char", metadata !"_ZNK11ap_int_baseILi11ELb1ELb1EE7to_charEv", metadata !67, i32 1663, metadata !238, i1 false, i1 false, i32 0, i32 0, null, i32 256, i1 false, null, null, i32 0, metadata !83, i32 1663} ; [ DW_TAG_subprogram ]
!238 = metadata !{i32 786453, i32 0, metadata !"", i32 0, i32 0, i64 0, i64 0, i64 0, i32 0, null, metadata !239, i32 0, i32 0} ; [ DW_TAG_subroutine_type ]
!239 = metadata !{metadata !113, metadata !230}
!240 = metadata !{i32 786478, i32 0, metadata !71, metadata !"to_ushort", metadata !"to_ushort", metadata !"_ZNK11ap_int_baseILi11ELb1ELb1EE9to_ushortEv", metadata !67, i32 1664, metadata !241, i1 false, i1 false, i32 0, i32 0, null, i32 256, i1 false, null, null, i32 0, metadata !83, i32 1664} ; [ DW_TAG_subprogram ]
!241 = metadata !{i32 786453, i32 0, metadata !"", i32 0, i32 0, i64 0, i64 0, i64 0, i32 0, null, metadata !242, i32 0, i32 0} ; [ DW_TAG_subroutine_type ]
!242 = metadata !{metadata !125, metadata !230}
!243 = metadata !{i32 786478, i32 0, metadata !71, metadata !"to_short", metadata !"to_short", metadata !"_ZNK11ap_int_baseILi11ELb1ELb1EE8to_shortEv", metadata !67, i32 1665, metadata !244, i1 false, i1 false, i32 0, i32 0, null, i32 256, i1 false, null, null, i32 0, metadata !83, i32 1665} ; [ DW_TAG_subprogram ]
!244 = metadata !{i32 786453, i32 0, metadata !"", i32 0, i32 0, i64 0, i64 0, i64 0, i32 0, null, metadata !245, i32 0, i32 0} ; [ DW_TAG_subroutine_type ]
!245 = metadata !{metadata !121, metadata !230}
!246 = metadata !{i32 786478, i32 0, metadata !71, metadata !"to_int", metadata !"to_int", metadata !"_ZNK11ap_int_baseILi11ELb1ELb1EE6to_intEv", metadata !67, i32 1666, metadata !247, i1 false, i1 false, i32 0, i32 0, null, i32 256, i1 false, null, null, i32 0, metadata !83, i32 1666} ; [ DW_TAG_subprogram ]
!247 = metadata !{i32 786453, i32 0, metadata !"", i32 0, i32 0, i64 0, i64 0, i64 0, i32 0, null, metadata !248, i32 0, i32 0} ; [ DW_TAG_subroutine_type ]
!248 = metadata !{metadata !87, metadata !230}
!249 = metadata !{i32 786478, i32 0, metadata !71, metadata !"to_uint", metadata !"to_uint", metadata !"_ZNK11ap_int_baseILi11ELb1ELb1EE7to_uintEv", metadata !67, i32 1667, metadata !250, i1 false, i1 false, i32 0, i32 0, null, i32 256, i1 false, null, null, i32 0, metadata !83, i32 1667} ; [ DW_TAG_subprogram ]
!250 = metadata !{i32 786453, i32 0, metadata !"", i32 0, i32 0, i64 0, i64 0, i64 0, i32 0, null, metadata !251, i32 0, i32 0} ; [ DW_TAG_subroutine_type ]
!251 = metadata !{metadata !132, metadata !230}
!252 = metadata !{i32 786478, i32 0, metadata !71, metadata !"to_long", metadata !"to_long", metadata !"_ZNK11ap_int_baseILi11ELb1ELb1EE7to_longEv", metadata !67, i32 1668, metadata !253, i1 false, i1 false, i32 0, i32 0, null, i32 256, i1 false, null, null, i32 0, metadata !83, i32 1668} ; [ DW_TAG_subprogram ]
!253 = metadata !{i32 786453, i32 0, metadata !"", i32 0, i32 0, i64 0, i64 0, i64 0, i32 0, null, metadata !254, i32 0, i32 0} ; [ DW_TAG_subroutine_type ]
!254 = metadata !{metadata !136, metadata !230}
!255 = metadata !{i32 786478, i32 0, metadata !71, metadata !"to_ulong", metadata !"to_ulong", metadata !"_ZNK11ap_int_baseILi11ELb1ELb1EE8to_ulongEv", metadata !67, i32 1669, metadata !256, i1 false, i1 false, i32 0, i32 0, null, i32 256, i1 false, null, null, i32 0, metadata !83, i32 1669} ; [ DW_TAG_subprogram ]
!256 = metadata !{i32 786453, i32 0, metadata !"", i32 0, i32 0, i64 0, i64 0, i64 0, i32 0, null, metadata !257, i32 0, i32 0} ; [ DW_TAG_subroutine_type ]
!257 = metadata !{metadata !140, metadata !230}
!258 = metadata !{i32 786478, i32 0, metadata !71, metadata !"to_int64", metadata !"to_int64", metadata !"_ZNK11ap_int_baseILi11ELb1ELb1EE8to_int64Ev", metadata !67, i32 1670, metadata !259, i1 false, i1 false, i32 0, i32 0, null, i32 256, i1 false, null, null, i32 0, metadata !83, i32 1670} ; [ DW_TAG_subprogram ]
!259 = metadata !{i32 786453, i32 0, metadata !"", i32 0, i32 0, i64 0, i64 0, i64 0, i32 0, null, metadata !260, i32 0, i32 0} ; [ DW_TAG_subroutine_type ]
!260 = metadata !{metadata !144, metadata !230}
!261 = metadata !{i32 786478, i32 0, metadata !71, metadata !"to_uint64", metadata !"to_uint64", metadata !"_ZNK11ap_int_baseILi11ELb1ELb1EE9to_uint64Ev", metadata !67, i32 1671, metadata !262, i1 false, i1 false, i32 0, i32 0, null, i32 256, i1 false, null, null, i32 0, metadata !83, i32 1671} ; [ DW_TAG_subprogram ]
!262 = metadata !{i32 786453, i32 0, metadata !"", i32 0, i32 0, i64 0, i64 0, i64 0, i32 0, null, metadata !263, i32 0, i32 0} ; [ DW_TAG_subroutine_type ]
!263 = metadata !{metadata !149, metadata !230}
!264 = metadata !{i32 786478, i32 0, metadata !71, metadata !"to_double", metadata !"to_double", metadata !"_ZNK11ap_int_baseILi11ELb1ELb1EE9to_doubleEv", metadata !67, i32 1672, metadata !265, i1 false, i1 false, i32 0, i32 0, null, i32 256, i1 false, null, null, i32 0, metadata !83, i32 1672} ; [ DW_TAG_subprogram ]
!265 = metadata !{i32 786453, i32 0, metadata !"", i32 0, i32 0, i64 0, i64 0, i64 0, i32 0, null, metadata !266, i32 0, i32 0} ; [ DW_TAG_subroutine_type ]
!266 = metadata !{metadata !163, metadata !230}
!267 = metadata !{i32 786478, i32 0, metadata !71, metadata !"length", metadata !"length", metadata !"_ZNK11ap_int_baseILi11ELb1ELb1EE6lengthEv", metadata !67, i32 1686, metadata !247, i1 false, i1 false, i32 0, i32 0, null, i32 256, i1 false, null, null, i32 0, metadata !83, i32 1686} ; [ DW_TAG_subprogram ]
!268 = metadata !{i32 786478, i32 0, metadata !71, metadata !"length", metadata !"length", metadata !"_ZNVK11ap_int_baseILi11ELb1ELb1EE6lengthEv", metadata !67, i32 1687, metadata !269, i1 false, i1 false, i32 0, i32 0, null, i32 256, i1 false, null, null, i32 0, metadata !83, i32 1687} ; [ DW_TAG_subprogram ]
!269 = metadata !{i32 786453, i32 0, metadata !"", i32 0, i32 0, i64 0, i64 0, i64 0, i32 0, null, metadata !270, i32 0, i32 0} ; [ DW_TAG_subroutine_type ]
!270 = metadata !{metadata !87, metadata !271}
!271 = metadata !{i32 786447, i32 0, metadata !"", i32 0, i32 0, i64 32, i64 32, i64 0, i32 64, metadata !105} ; [ DW_TAG_pointer_type ]
!272 = metadata !{i32 786478, i32 0, metadata !71, metadata !"reverse", metadata !"reverse", metadata !"_ZN11ap_int_baseILi11ELb1ELb1EE7reverseEv", metadata !67, i32 1692, metadata !273, i1 false, i1 false, i32 0, i32 0, null, i32 256, i1 false, null, null, i32 0, metadata !83, i32 1692} ; [ DW_TAG_subprogram ]
!273 = metadata !{i32 786453, i32 0, metadata !"", i32 0, i32 0, i64 0, i64 0, i64 0, i32 0, null, metadata !274, i32 0, i32 0} ; [ DW_TAG_subroutine_type ]
!274 = metadata !{metadata !187, metadata !70}
!275 = metadata !{i32 786478, i32 0, metadata !71, metadata !"iszero", metadata !"iszero", metadata !"_ZNK11ap_int_baseILi11ELb1ELb1EE6iszeroEv", metadata !67, i32 1698, metadata !232, i1 false, i1 false, i32 0, i32 0, null, i32 256, i1 false, null, null, i32 0, metadata !83, i32 1698} ; [ DW_TAG_subprogram ]
!276 = metadata !{i32 786478, i32 0, metadata !71, metadata !"is_zero", metadata !"is_zero", metadata !"_ZNK11ap_int_baseILi11ELb1ELb1EE7is_zeroEv", metadata !67, i32 1703, metadata !232, i1 false, i1 false, i32 0, i32 0, null, i32 256, i1 false, null, null, i32 0, metadata !83, i32 1703} ; [ DW_TAG_subprogram ]
!277 = metadata !{i32 786478, i32 0, metadata !71, metadata !"sign", metadata !"sign", metadata !"_ZNK11ap_int_baseILi11ELb1ELb1EE4signEv", metadata !67, i32 1708, metadata !232, i1 false, i1 false, i32 0, i32 0, null, i32 256, i1 false, null, null, i32 0, metadata !83, i32 1708} ; [ DW_TAG_subprogram ]
!278 = metadata !{i32 786478, i32 0, metadata !71, metadata !"clear", metadata !"clear", metadata !"_ZN11ap_int_baseILi11ELb1ELb1EE5clearEi", metadata !67, i32 1716, metadata !127, i1 false, i1 false, i32 0, i32 0, null, i32 256, i1 false, null, null, i32 0, metadata !83, i32 1716} ; [ DW_TAG_subprogram ]
!279 = metadata !{i32 786478, i32 0, metadata !71, metadata !"invert", metadata !"invert", metadata !"_ZN11ap_int_baseILi11ELb1ELb1EE6invertEi", metadata !67, i32 1722, metadata !127, i1 false, i1 false, i32 0, i32 0, null, i32 256, i1 false, null, null, i32 0, metadata !83, i32 1722} ; [ DW_TAG_subprogram ]
!280 = metadata !{i32 786478, i32 0, metadata !71, metadata !"test", metadata !"test", metadata !"_ZNK11ap_int_baseILi11ELb1ELb1EE4testEi", metadata !67, i32 1730, metadata !281, i1 false, i1 false, i32 0, i32 0, null, i32 256, i1 false, null, null, i32 0, metadata !83, i32 1730} ; [ DW_TAG_subprogram ]
!281 = metadata !{i32 786453, i32 0, metadata !"", i32 0, i32 0, i64 0, i64 0, i64 0, i32 0, null, metadata !282, i32 0, i32 0} ; [ DW_TAG_subroutine_type ]
!282 = metadata !{metadata !89, metadata !230, metadata !87}
!283 = metadata !{i32 786478, i32 0, metadata !71, metadata !"set", metadata !"set", metadata !"_ZN11ap_int_baseILi11ELb1ELb1EE3setEi", metadata !67, i32 1736, metadata !127, i1 false, i1 false, i32 0, i32 0, null, i32 256, i1 false, null, null, i32 0, metadata !83, i32 1736} ; [ DW_TAG_subprogram ]
!284 = metadata !{i32 786478, i32 0, metadata !71, metadata !"set", metadata !"set", metadata !"_ZN11ap_int_baseILi11ELb1ELb1EE3setEib", metadata !67, i32 1742, metadata !285, i1 false, i1 false, i32 0, i32 0, null, i32 256, i1 false, null, null, i32 0, metadata !83, i32 1742} ; [ DW_TAG_subprogram ]
!285 = metadata !{i32 786453, i32 0, metadata !"", i32 0, i32 0, i64 0, i64 0, i64 0, i32 0, null, metadata !286, i32 0, i32 0} ; [ DW_TAG_subroutine_type ]
!286 = metadata !{null, metadata !70, metadata !87, metadata !89}
!287 = metadata !{i32 786478, i32 0, metadata !71, metadata !"lrotate", metadata !"lrotate", metadata !"_ZN11ap_int_baseILi11ELb1ELb1EE7lrotateEi", metadata !67, i32 1749, metadata !127, i1 false, i1 false, i32 0, i32 0, null, i32 256, i1 false, null, null, i32 0, metadata !83, i32 1749} ; [ DW_TAG_subprogram ]
!288 = metadata !{i32 786478, i32 0, metadata !71, metadata !"rrotate", metadata !"rrotate", metadata !"_ZN11ap_int_baseILi11ELb1ELb1EE7rrotateEi", metadata !67, i32 1758, metadata !127, i1 false, i1 false, i32 0, i32 0, null, i32 256, i1 false, null, null, i32 0, metadata !83, i32 1758} ; [ DW_TAG_subprogram ]
!289 = metadata !{i32 786478, i32 0, metadata !71, metadata !"set_bit", metadata !"set_bit", metadata !"_ZN11ap_int_baseILi11ELb1ELb1EE7set_bitEib", metadata !67, i32 1766, metadata !285, i1 false, i1 false, i32 0, i32 0, null, i32 256, i1 false, null, null, i32 0, metadata !83, i32 1766} ; [ DW_TAG_subprogram ]
!290 = metadata !{i32 786478, i32 0, metadata !71, metadata !"get_bit", metadata !"get_bit", metadata !"_ZNK11ap_int_baseILi11ELb1ELb1EE7get_bitEi", metadata !67, i32 1771, metadata !281, i1 false, i1 false, i32 0, i32 0, null, i32 256, i1 false, null, null, i32 0, metadata !83, i32 1771} ; [ DW_TAG_subprogram ]
!291 = metadata !{i32 786478, i32 0, metadata !71, metadata !"b_not", metadata !"b_not", metadata !"_ZN11ap_int_baseILi11ELb1ELb1EE5b_notEv", metadata !67, i32 1776, metadata !91, i1 false, i1 false, i32 0, i32 0, null, i32 256, i1 false, null, null, i32 0, metadata !83, i32 1776} ; [ DW_TAG_subprogram ]
!292 = metadata !{i32 786478, i32 0, metadata !71, metadata !"countLeadingZeros", metadata !"countLeadingZeros", metadata !"_ZN11ap_int_baseILi11ELb1ELb1EE17countLeadingZerosEv", metadata !67, i32 1783, metadata !293, i1 false, i1 false, i32 0, i32 0, null, i32 256, i1 false, null, null, i32 0, metadata !83, i32 1783} ; [ DW_TAG_subprogram ]
!293 = metadata !{i32 786453, i32 0, metadata !"", i32 0, i32 0, i64 0, i64 0, i64 0, i32 0, null, metadata !294, i32 0, i32 0} ; [ DW_TAG_subroutine_type ]
!294 = metadata !{metadata !87, metadata !70}
!295 = metadata !{i32 786478, i32 0, metadata !71, metadata !"operator++", metadata !"operator++", metadata !"_ZN11ap_int_baseILi11ELb1ELb1EEppEv", metadata !67, i32 1840, metadata !273, i1 false, i1 false, i32 0, i32 0, null, i32 256, i1 false, null, null, i32 0, metadata !83, i32 1840} ; [ DW_TAG_subprogram ]
!296 = metadata !{i32 786478, i32 0, metadata !71, metadata !"operator--", metadata !"operator--", metadata !"_ZN11ap_int_baseILi11ELb1ELb1EEmmEv", metadata !67, i32 1844, metadata !273, i1 false, i1 false, i32 0, i32 0, null, i32 256, i1 false, null, null, i32 0, metadata !83, i32 1844} ; [ DW_TAG_subprogram ]
!297 = metadata !{i32 786478, i32 0, metadata !71, metadata !"operator++", metadata !"operator++", metadata !"_ZN11ap_int_baseILi11ELb1ELb1EEppEi", metadata !67, i32 1852, metadata !298, i1 false, i1 false, i32 0, i32 0, null, i32 256, i1 false, null, null, i32 0, metadata !83, i32 1852} ; [ DW_TAG_subprogram ]
!298 = metadata !{i32 786453, i32 0, metadata !"", i32 0, i32 0, i64 0, i64 0, i64 0, i32 0, null, metadata !299, i32 0, i32 0} ; [ DW_TAG_subroutine_type ]
!299 = metadata !{metadata !97, metadata !70, metadata !87}
!300 = metadata !{i32 786478, i32 0, metadata !71, metadata !"operator--", metadata !"operator--", metadata !"_ZN11ap_int_baseILi11ELb1ELb1EEmmEi", metadata !67, i32 1857, metadata !298, i1 false, i1 false, i32 0, i32 0, null, i32 256, i1 false, null, null, i32 0, metadata !83, i32 1857} ; [ DW_TAG_subprogram ]
!301 = metadata !{i32 786478, i32 0, metadata !71, metadata !"operator+", metadata !"operator+", metadata !"_ZNK11ap_int_baseILi11ELb1ELb1EEpsEv", metadata !67, i32 1866, metadata !302, i1 false, i1 false, i32 0, i32 0, null, i32 256, i1 false, null, null, i32 0, metadata !83, i32 1866} ; [ DW_TAG_subprogram ]
!302 = metadata !{i32 786453, i32 0, metadata !"", i32 0, i32 0, i64 0, i64 0, i64 0, i32 0, null, metadata !303, i32 0, i32 0} ; [ DW_TAG_subroutine_type ]
!303 = metadata !{metadata !71, metadata !230}
!304 = metadata !{i32 786478, i32 0, metadata !71, metadata !"operator!", metadata !"operator!", metadata !"_ZNK11ap_int_baseILi11ELb1ELb1EEntEv", metadata !67, i32 1872, metadata !232, i1 false, i1 false, i32 0, i32 0, null, i32 256, i1 false, null, null, i32 0, metadata !83, i32 1872} ; [ DW_TAG_subprogram ]
!305 = metadata !{i32 786478, i32 0, metadata !71, metadata !"operator-", metadata !"operator-", metadata !"_ZNK11ap_int_baseILi11ELb1ELb1EEngEv", metadata !67, i32 1877, metadata !306, i1 false, i1 false, i32 0, i32 0, null, i32 256, i1 false, null, null, i32 0, metadata !83, i32 1877} ; [ DW_TAG_subprogram ]
!306 = metadata !{i32 786453, i32 0, metadata !"", i32 0, i32 0, i64 0, i64 0, i64 0, i32 0, null, metadata !307, i32 0, i32 0} ; [ DW_TAG_subroutine_type ]
!307 = metadata !{metadata !308, metadata !230}
!308 = metadata !{i32 786434, null, metadata !"ap_int_base<12, true, true>", metadata !67, i32 1398, i64 16, i64 16, i32 0, i32 0, null, metadata !309, i32 0, null, metadata !862} ; [ DW_TAG_class_type ]
!309 = metadata !{metadata !310, metadata !321, metadata !325, metadata !624, metadata !627, metadata !630, metadata !633, metadata !636, metadata !639, metadata !642, metadata !645, metadata !648, metadata !651, metadata !654, metadata !657, metadata !660, metadata !663, metadata !666, metadata !669, metadata !672, metadata !675, metadata !680, metadata !685, metadata !688, metadata !693, metadata !696, metadata !697, metadata !701, metadata !704, metadata !707, metadata !710, metadata !713, metadata !716, metadata !719, metadata !722, metadata !725, metadata !728, metadata !731, metadata !734, metadata !737, metadata !740, metadata !745, metadata !748, metadata !751, metadata !754, metadata !757, metadata !760, metadata !763, metadata !766, metadata !769, metadata !772, metadata !775, metadata !778, metadata !781, metadata !782, metadata !786, metadata !789, metadata !790, metadata !791, metadata !792, metadata !793, metadata !794, metadata !797, metadata !798, metadata !801, metadata !802, metadata !803, metadata !804, metadata !805, metadata !806, metadata !809, metadata !810, metadata !811, metadata !814, metadata !815, metadata !818, metadata !819, metadata !823, metadata !827, metadata !828, metadata !831, metadata !832, metadata !836, metadata !837, metadata !838, metadata !839, metadata !842, metadata !843, metadata !844, metadata !845, metadata !846, metadata !847, metadata !848, metadata !849, metadata !850, metadata !851, metadata !852, metadata !853, metadata !856, metadata !859}
!310 = metadata !{i32 786460, metadata !308, null, metadata !67, i32 0, i64 0, i64 0, i64 0, i32 0, metadata !311} ; [ DW_TAG_inheritance ]
!311 = metadata !{i32 786434, null, metadata !"ssdm_int<12 + 1024 * 0, true>", metadata !75, i32 14, i64 16, i64 16, i32 0, i32 0, null, metadata !312, i32 0, null, metadata !319} ; [ DW_TAG_class_type ]
!312 = metadata !{metadata !313, metadata !315}
!313 = metadata !{i32 786445, metadata !311, metadata !"V", metadata !75, i32 14, i64 12, i64 16, i64 0, i32 0, metadata !314} ; [ DW_TAG_member ]
!314 = metadata !{i32 786468, null, metadata !"int12", null, i32 0, i64 12, i64 16, i64 0, i32 0, i32 5} ; [ DW_TAG_base_type ]
!315 = metadata !{i32 786478, i32 0, metadata !311, metadata !"ssdm_int", metadata !"ssdm_int", metadata !"", metadata !75, i32 14, metadata !316, i1 false, i1 false, i32 0, i32 0, null, i32 256, i1 false, null, null, i32 0, metadata !83, i32 14} ; [ DW_TAG_subprogram ]
!316 = metadata !{i32 786453, i32 0, metadata !"", i32 0, i32 0, i64 0, i64 0, i64 0, i32 0, null, metadata !317, i32 0, i32 0} ; [ DW_TAG_subroutine_type ]
!317 = metadata !{null, metadata !318}
!318 = metadata !{i32 786447, i32 0, metadata !"", i32 0, i32 0, i64 32, i64 32, i64 0, i32 64, metadata !311} ; [ DW_TAG_pointer_type ]
!319 = metadata !{metadata !320, metadata !88}
!320 = metadata !{i32 786480, null, metadata !"_AP_N", metadata !87, i64 12, null, i32 0, i32 0} ; [ DW_TAG_template_value_parameter ]
!321 = metadata !{i32 786478, i32 0, metadata !308, metadata !"ap_int_base", metadata !"ap_int_base", metadata !"", metadata !67, i32 1439, metadata !322, i1 false, i1 false, i32 0, i32 0, null, i32 256, i1 false, null, null, i32 0, metadata !83, i32 1439} ; [ DW_TAG_subprogram ]
!322 = metadata !{i32 786453, i32 0, metadata !"", i32 0, i32 0, i64 0, i64 0, i64 0, i32 0, null, metadata !323, i32 0, i32 0} ; [ DW_TAG_subroutine_type ]
!323 = metadata !{null, metadata !324}
!324 = metadata !{i32 786447, i32 0, metadata !"", i32 0, i32 0, i64 32, i64 32, i64 0, i32 64, metadata !308} ; [ DW_TAG_pointer_type ]
!325 = metadata !{i32 786478, i32 0, metadata !308, metadata !"ap_int_base<33, true>", metadata !"ap_int_base<33, true>", metadata !"", metadata !67, i32 1451, metadata !326, i1 false, i1 false, i32 0, i32 0, null, i32 256, i1 false, null, metadata !350, i32 0, metadata !83, i32 1451} ; [ DW_TAG_subprogram ]
!326 = metadata !{i32 786453, i32 0, metadata !"", i32 0, i32 0, i64 0, i64 0, i64 0, i32 0, null, metadata !327, i32 0, i32 0} ; [ DW_TAG_subroutine_type ]
!327 = metadata !{null, metadata !324, metadata !328}
!328 = metadata !{i32 786448, null, null, null, i32 0, i64 0, i64 0, i64 0, i32 0, metadata !329} ; [ DW_TAG_reference_type ]
!329 = metadata !{i32 786470, null, metadata !"", null, i32 0, i64 0, i64 0, i64 0, i32 0, metadata !330} ; [ DW_TAG_const_type ]
!330 = metadata !{i32 786434, null, metadata !"ap_int_base<33, true, true>", metadata !67, i32 1398, i64 64, i64 64, i32 0, i32 0, null, metadata !331, i32 0, null, metadata !622} ; [ DW_TAG_class_type ]
!331 = metadata !{metadata !332, metadata !343, metadata !347, metadata !352, metadata !358, metadata !361, metadata !364, metadata !367, metadata !370, metadata !373, metadata !376, metadata !379, metadata !382, metadata !385, metadata !388, metadata !391, metadata !394, metadata !397, metadata !400, metadata !403, metadata !406, metadata !410, metadata !413, metadata !416, metadata !417, metadata !421, metadata !424, metadata !427, metadata !430, metadata !433, metadata !436, metadata !439, metadata !442, metadata !445, metadata !448, metadata !451, metadata !454, metadata !463, metadata !466, metadata !469, metadata !472, metadata !475, metadata !478, metadata !481, metadata !484, metadata !487, metadata !490, metadata !493, metadata !496, metadata !499, metadata !500, metadata !504, metadata !507, metadata !508, metadata !509, metadata !510, metadata !511, metadata !512, metadata !515, metadata !516, metadata !519, metadata !520, metadata !521, metadata !522, metadata !523, metadata !524, metadata !527, metadata !528, metadata !529, metadata !532, metadata !533, metadata !536, metadata !537, metadata !541, metadata !545, metadata !546, metadata !549, metadata !550, metadata !589, metadata !590, metadata !591, metadata !592, metadata !595, metadata !596, metadata !597, metadata !598, metadata !599, metadata !600, metadata !601, metadata !602, metadata !603, metadata !604, metadata !605, metadata !606, metadata !616, metadata !619}
!332 = metadata !{i32 786460, metadata !330, null, metadata !67, i32 0, i64 0, i64 0, i64 0, i32 0, metadata !333} ; [ DW_TAG_inheritance ]
!333 = metadata !{i32 786434, null, metadata !"ssdm_int<33 + 1024 * 0, true>", metadata !75, i32 35, i64 64, i64 64, i32 0, i32 0, null, metadata !334, i32 0, null, metadata !341} ; [ DW_TAG_class_type ]
!334 = metadata !{metadata !335, metadata !337}
!335 = metadata !{i32 786445, metadata !333, metadata !"V", metadata !75, i32 35, i64 33, i64 64, i64 0, i32 0, metadata !336} ; [ DW_TAG_member ]
!336 = metadata !{i32 786468, null, metadata !"int33", null, i32 0, i64 33, i64 64, i64 0, i32 0, i32 5} ; [ DW_TAG_base_type ]
!337 = metadata !{i32 786478, i32 0, metadata !333, metadata !"ssdm_int", metadata !"ssdm_int", metadata !"", metadata !75, i32 35, metadata !338, i1 false, i1 false, i32 0, i32 0, null, i32 256, i1 false, null, null, i32 0, metadata !83, i32 35} ; [ DW_TAG_subprogram ]
!338 = metadata !{i32 786453, i32 0, metadata !"", i32 0, i32 0, i64 0, i64 0, i64 0, i32 0, null, metadata !339, i32 0, i32 0} ; [ DW_TAG_subroutine_type ]
!339 = metadata !{null, metadata !340}
!340 = metadata !{i32 786447, i32 0, metadata !"", i32 0, i32 0, i64 32, i64 32, i64 0, i32 64, metadata !333} ; [ DW_TAG_pointer_type ]
!341 = metadata !{metadata !342, metadata !88}
!342 = metadata !{i32 786480, null, metadata !"_AP_N", metadata !87, i64 33, null, i32 0, i32 0} ; [ DW_TAG_template_value_parameter ]
!343 = metadata !{i32 786478, i32 0, metadata !330, metadata !"ap_int_base", metadata !"ap_int_base", metadata !"", metadata !67, i32 1439, metadata !344, i1 false, i1 false, i32 0, i32 0, null, i32 256, i1 false, null, null, i32 0, metadata !83, i32 1439} ; [ DW_TAG_subprogram ]
!344 = metadata !{i32 786453, i32 0, metadata !"", i32 0, i32 0, i64 0, i64 0, i64 0, i32 0, null, metadata !345, i32 0, i32 0} ; [ DW_TAG_subroutine_type ]
!345 = metadata !{null, metadata !346}
!346 = metadata !{i32 786447, i32 0, metadata !"", i32 0, i32 0, i64 32, i64 32, i64 0, i32 64, metadata !330} ; [ DW_TAG_pointer_type ]
!347 = metadata !{i32 786478, i32 0, metadata !330, metadata !"ap_int_base<33, true>", metadata !"ap_int_base<33, true>", metadata !"", metadata !67, i32 1451, metadata !348, i1 false, i1 false, i32 0, i32 0, null, i32 256, i1 false, null, metadata !350, i32 0, metadata !83, i32 1451} ; [ DW_TAG_subprogram ]
!348 = metadata !{i32 786453, i32 0, metadata !"", i32 0, i32 0, i64 0, i64 0, i64 0, i32 0, null, metadata !349, i32 0, i32 0} ; [ DW_TAG_subroutine_type ]
!349 = metadata !{null, metadata !346, metadata !328}
!350 = metadata !{metadata !351, metadata !100}
!351 = metadata !{i32 786480, null, metadata !"_AP_W2", metadata !87, i64 33, null, i32 0, i32 0} ; [ DW_TAG_template_value_parameter ]
!352 = metadata !{i32 786478, i32 0, metadata !330, metadata !"ap_int_base<33, true>", metadata !"ap_int_base<33, true>", metadata !"", metadata !67, i32 1454, metadata !353, i1 false, i1 false, i32 0, i32 0, null, i32 256, i1 false, null, metadata !350, i32 0, metadata !83, i32 1454} ; [ DW_TAG_subprogram ]
!353 = metadata !{i32 786453, i32 0, metadata !"", i32 0, i32 0, i64 0, i64 0, i64 0, i32 0, null, metadata !354, i32 0, i32 0} ; [ DW_TAG_subroutine_type ]
!354 = metadata !{null, metadata !346, metadata !355}
!355 = metadata !{i32 786448, null, null, null, i32 0, i64 0, i64 0, i64 0, i32 0, metadata !356} ; [ DW_TAG_reference_type ]
!356 = metadata !{i32 786470, null, metadata !"", null, i32 0, i64 0, i64 0, i64 0, i32 0, metadata !357} ; [ DW_TAG_const_type ]
!357 = metadata !{i32 786485, null, metadata !"", null, i32 0, i64 0, i64 0, i64 0, i32 0, metadata !330} ; [ DW_TAG_volatile_type ]
!358 = metadata !{i32 786478, i32 0, metadata !330, metadata !"ap_int_base", metadata !"ap_int_base", metadata !"", metadata !67, i32 1461, metadata !359, i1 false, i1 false, i32 0, i32 0, null, i32 384, i1 false, null, null, i32 0, metadata !83, i32 1461} ; [ DW_TAG_subprogram ]
!359 = metadata !{i32 786453, i32 0, metadata !"", i32 0, i32 0, i64 0, i64 0, i64 0, i32 0, null, metadata !360, i32 0, i32 0} ; [ DW_TAG_subroutine_type ]
!360 = metadata !{null, metadata !346, metadata !89}
!361 = metadata !{i32 786478, i32 0, metadata !330, metadata !"ap_int_base", metadata !"ap_int_base", metadata !"", metadata !67, i32 1462, metadata !362, i1 false, i1 false, i32 0, i32 0, null, i32 384, i1 false, null, null, i32 0, metadata !83, i32 1462} ; [ DW_TAG_subprogram ]
!362 = metadata !{i32 786453, i32 0, metadata !"", i32 0, i32 0, i64 0, i64 0, i64 0, i32 0, null, metadata !363, i32 0, i32 0} ; [ DW_TAG_subroutine_type ]
!363 = metadata !{null, metadata !346, metadata !113}
!364 = metadata !{i32 786478, i32 0, metadata !330, metadata !"ap_int_base", metadata !"ap_int_base", metadata !"", metadata !67, i32 1463, metadata !365, i1 false, i1 false, i32 0, i32 0, null, i32 384, i1 false, null, null, i32 0, metadata !83, i32 1463} ; [ DW_TAG_subprogram ]
!365 = metadata !{i32 786453, i32 0, metadata !"", i32 0, i32 0, i64 0, i64 0, i64 0, i32 0, null, metadata !366, i32 0, i32 0} ; [ DW_TAG_subroutine_type ]
!366 = metadata !{null, metadata !346, metadata !117}
!367 = metadata !{i32 786478, i32 0, metadata !330, metadata !"ap_int_base", metadata !"ap_int_base", metadata !"", metadata !67, i32 1464, metadata !368, i1 false, i1 false, i32 0, i32 0, null, i32 384, i1 false, null, null, i32 0, metadata !83, i32 1464} ; [ DW_TAG_subprogram ]
!368 = metadata !{i32 786453, i32 0, metadata !"", i32 0, i32 0, i64 0, i64 0, i64 0, i32 0, null, metadata !369, i32 0, i32 0} ; [ DW_TAG_subroutine_type ]
!369 = metadata !{null, metadata !346, metadata !121}
!370 = metadata !{i32 786478, i32 0, metadata !330, metadata !"ap_int_base", metadata !"ap_int_base", metadata !"", metadata !67, i32 1465, metadata !371, i1 false, i1 false, i32 0, i32 0, null, i32 384, i1 false, null, null, i32 0, metadata !83, i32 1465} ; [ DW_TAG_subprogram ]
!371 = metadata !{i32 786453, i32 0, metadata !"", i32 0, i32 0, i64 0, i64 0, i64 0, i32 0, null, metadata !372, i32 0, i32 0} ; [ DW_TAG_subroutine_type ]
!372 = metadata !{null, metadata !346, metadata !125}
!373 = metadata !{i32 786478, i32 0, metadata !330, metadata !"ap_int_base", metadata !"ap_int_base", metadata !"", metadata !67, i32 1466, metadata !374, i1 false, i1 false, i32 0, i32 0, null, i32 384, i1 false, null, null, i32 0, metadata !83, i32 1466} ; [ DW_TAG_subprogram ]
!374 = metadata !{i32 786453, i32 0, metadata !"", i32 0, i32 0, i64 0, i64 0, i64 0, i32 0, null, metadata !375, i32 0, i32 0} ; [ DW_TAG_subroutine_type ]
!375 = metadata !{null, metadata !346, metadata !87}
!376 = metadata !{i32 786478, i32 0, metadata !330, metadata !"ap_int_base", metadata !"ap_int_base", metadata !"", metadata !67, i32 1467, metadata !377, i1 false, i1 false, i32 0, i32 0, null, i32 384, i1 false, null, null, i32 0, metadata !83, i32 1467} ; [ DW_TAG_subprogram ]
!377 = metadata !{i32 786453, i32 0, metadata !"", i32 0, i32 0, i64 0, i64 0, i64 0, i32 0, null, metadata !378, i32 0, i32 0} ; [ DW_TAG_subroutine_type ]
!378 = metadata !{null, metadata !346, metadata !132}
!379 = metadata !{i32 786478, i32 0, metadata !330, metadata !"ap_int_base", metadata !"ap_int_base", metadata !"", metadata !67, i32 1468, metadata !380, i1 false, i1 false, i32 0, i32 0, null, i32 384, i1 false, null, null, i32 0, metadata !83, i32 1468} ; [ DW_TAG_subprogram ]
!380 = metadata !{i32 786453, i32 0, metadata !"", i32 0, i32 0, i64 0, i64 0, i64 0, i32 0, null, metadata !381, i32 0, i32 0} ; [ DW_TAG_subroutine_type ]
!381 = metadata !{null, metadata !346, metadata !136}
!382 = metadata !{i32 786478, i32 0, metadata !330, metadata !"ap_int_base", metadata !"ap_int_base", metadata !"", metadata !67, i32 1469, metadata !383, i1 false, i1 false, i32 0, i32 0, null, i32 384, i1 false, null, null, i32 0, metadata !83, i32 1469} ; [ DW_TAG_subprogram ]
!383 = metadata !{i32 786453, i32 0, metadata !"", i32 0, i32 0, i64 0, i64 0, i64 0, i32 0, null, metadata !384, i32 0, i32 0} ; [ DW_TAG_subroutine_type ]
!384 = metadata !{null, metadata !346, metadata !140}
!385 = metadata !{i32 786478, i32 0, metadata !330, metadata !"ap_int_base", metadata !"ap_int_base", metadata !"", metadata !67, i32 1470, metadata !386, i1 false, i1 false, i32 0, i32 0, null, i32 384, i1 false, null, null, i32 0, metadata !83, i32 1470} ; [ DW_TAG_subprogram ]
!386 = metadata !{i32 786453, i32 0, metadata !"", i32 0, i32 0, i64 0, i64 0, i64 0, i32 0, null, metadata !387, i32 0, i32 0} ; [ DW_TAG_subroutine_type ]
!387 = metadata !{null, metadata !346, metadata !144}
!388 = metadata !{i32 786478, i32 0, metadata !330, metadata !"ap_int_base", metadata !"ap_int_base", metadata !"", metadata !67, i32 1471, metadata !389, i1 false, i1 false, i32 0, i32 0, null, i32 384, i1 false, null, null, i32 0, metadata !83, i32 1471} ; [ DW_TAG_subprogram ]
!389 = metadata !{i32 786453, i32 0, metadata !"", i32 0, i32 0, i64 0, i64 0, i64 0, i32 0, null, metadata !390, i32 0, i32 0} ; [ DW_TAG_subroutine_type ]
!390 = metadata !{null, metadata !346, metadata !149}
!391 = metadata !{i32 786478, i32 0, metadata !330, metadata !"ap_int_base", metadata !"ap_int_base", metadata !"", metadata !67, i32 1472, metadata !392, i1 false, i1 false, i32 0, i32 0, null, i32 384, i1 false, null, null, i32 0, metadata !83, i32 1472} ; [ DW_TAG_subprogram ]
!392 = metadata !{i32 786453, i32 0, metadata !"", i32 0, i32 0, i64 0, i64 0, i64 0, i32 0, null, metadata !393, i32 0, i32 0} ; [ DW_TAG_subroutine_type ]
!393 = metadata !{null, metadata !346, metadata !154}
!394 = metadata !{i32 786478, i32 0, metadata !330, metadata !"ap_int_base", metadata !"ap_int_base", metadata !"", metadata !67, i32 1473, metadata !395, i1 false, i1 false, i32 0, i32 0, null, i32 384, i1 false, null, null, i32 0, metadata !83, i32 1473} ; [ DW_TAG_subprogram ]
!395 = metadata !{i32 786453, i32 0, metadata !"", i32 0, i32 0, i64 0, i64 0, i64 0, i32 0, null, metadata !396, i32 0, i32 0} ; [ DW_TAG_subroutine_type ]
!396 = metadata !{null, metadata !346, metadata !159}
!397 = metadata !{i32 786478, i32 0, metadata !330, metadata !"ap_int_base", metadata !"ap_int_base", metadata !"", metadata !67, i32 1474, metadata !398, i1 false, i1 false, i32 0, i32 0, null, i32 384, i1 false, null, null, i32 0, metadata !83, i32 1474} ; [ DW_TAG_subprogram ]
!398 = metadata !{i32 786453, i32 0, metadata !"", i32 0, i32 0, i64 0, i64 0, i64 0, i32 0, null, metadata !399, i32 0, i32 0} ; [ DW_TAG_subroutine_type ]
!399 = metadata !{null, metadata !346, metadata !163}
!400 = metadata !{i32 786478, i32 0, metadata !330, metadata !"ap_int_base", metadata !"ap_int_base", metadata !"", metadata !67, i32 1501, metadata !401, i1 false, i1 false, i32 0, i32 0, null, i32 256, i1 false, null, null, i32 0, metadata !83, i32 1501} ; [ DW_TAG_subprogram ]
!401 = metadata !{i32 786453, i32 0, metadata !"", i32 0, i32 0, i64 0, i64 0, i64 0, i32 0, null, metadata !402, i32 0, i32 0} ; [ DW_TAG_subroutine_type ]
!402 = metadata !{null, metadata !346, metadata !167}
!403 = metadata !{i32 786478, i32 0, metadata !330, metadata !"ap_int_base", metadata !"ap_int_base", metadata !"", metadata !67, i32 1508, metadata !404, i1 false, i1 false, i32 0, i32 0, null, i32 256, i1 false, null, null, i32 0, metadata !83, i32 1508} ; [ DW_TAG_subprogram ]
!404 = metadata !{i32 786453, i32 0, metadata !"", i32 0, i32 0, i64 0, i64 0, i64 0, i32 0, null, metadata !405, i32 0, i32 0} ; [ DW_TAG_subroutine_type ]
!405 = metadata !{null, metadata !346, metadata !167, metadata !113}
!406 = metadata !{i32 786478, i32 0, metadata !330, metadata !"read", metadata !"read", metadata !"_ZNV11ap_int_baseILi33ELb1ELb1EE4readEv", metadata !67, i32 1529, metadata !407, i1 false, i1 false, i32 0, i32 0, null, i32 256, i1 false, null, null, i32 0, metadata !83, i32 1529} ; [ DW_TAG_subprogram ]
!407 = metadata !{i32 786453, i32 0, metadata !"", i32 0, i32 0, i64 0, i64 0, i64 0, i32 0, null, metadata !408, i32 0, i32 0} ; [ DW_TAG_subroutine_type ]
!408 = metadata !{metadata !330, metadata !409}
!409 = metadata !{i32 786447, i32 0, metadata !"", i32 0, i32 0, i64 32, i64 32, i64 0, i32 64, metadata !357} ; [ DW_TAG_pointer_type ]
!410 = metadata !{i32 786478, i32 0, metadata !330, metadata !"write", metadata !"write", metadata !"_ZNV11ap_int_baseILi33ELb1ELb1EE5writeERKS0_", metadata !67, i32 1535, metadata !411, i1 false, i1 false, i32 0, i32 0, null, i32 256, i1 false, null, null, i32 0, metadata !83, i32 1535} ; [ DW_TAG_subprogram ]
!411 = metadata !{i32 786453, i32 0, metadata !"", i32 0, i32 0, i64 0, i64 0, i64 0, i32 0, null, metadata !412, i32 0, i32 0} ; [ DW_TAG_subroutine_type ]
!412 = metadata !{null, metadata !409, metadata !328}
!413 = metadata !{i32 786478, i32 0, metadata !330, metadata !"operator=", metadata !"operator=", metadata !"_ZNV11ap_int_baseILi33ELb1ELb1EEaSERVKS0_", metadata !67, i32 1547, metadata !414, i1 false, i1 false, i32 0, i32 0, null, i32 256, i1 false, null, null, i32 0, metadata !83, i32 1547} ; [ DW_TAG_subprogram ]
!414 = metadata !{i32 786453, i32 0, metadata !"", i32 0, i32 0, i64 0, i64 0, i64 0, i32 0, null, metadata !415, i32 0, i32 0} ; [ DW_TAG_subroutine_type ]
!415 = metadata !{null, metadata !409, metadata !355}
!416 = metadata !{i32 786478, i32 0, metadata !330, metadata !"operator=", metadata !"operator=", metadata !"_ZNV11ap_int_baseILi33ELb1ELb1EEaSERKS0_", metadata !67, i32 1556, metadata !411, i1 false, i1 false, i32 0, i32 0, null, i32 256, i1 false, null, null, i32 0, metadata !83, i32 1556} ; [ DW_TAG_subprogram ]
!417 = metadata !{i32 786478, i32 0, metadata !330, metadata !"operator=", metadata !"operator=", metadata !"_ZN11ap_int_baseILi33ELb1ELb1EEaSERVKS0_", metadata !67, i32 1579, metadata !418, i1 false, i1 false, i32 0, i32 0, null, i32 256, i1 false, null, null, i32 0, metadata !83, i32 1579} ; [ DW_TAG_subprogram ]
!418 = metadata !{i32 786453, i32 0, metadata !"", i32 0, i32 0, i64 0, i64 0, i64 0, i32 0, null, metadata !419, i32 0, i32 0} ; [ DW_TAG_subroutine_type ]
!419 = metadata !{metadata !420, metadata !346, metadata !355}
!420 = metadata !{i32 786448, null, null, null, i32 0, i64 0, i64 0, i64 0, i32 0, metadata !330} ; [ DW_TAG_reference_type ]
!421 = metadata !{i32 786478, i32 0, metadata !330, metadata !"operator=", metadata !"operator=", metadata !"_ZN11ap_int_baseILi33ELb1ELb1EEaSERKS0_", metadata !67, i32 1584, metadata !422, i1 false, i1 false, i32 0, i32 0, null, i32 256, i1 false, null, null, i32 0, metadata !83, i32 1584} ; [ DW_TAG_subprogram ]
!422 = metadata !{i32 786453, i32 0, metadata !"", i32 0, i32 0, i64 0, i64 0, i64 0, i32 0, null, metadata !423, i32 0, i32 0} ; [ DW_TAG_subroutine_type ]
!423 = metadata !{metadata !420, metadata !346, metadata !328}
!424 = metadata !{i32 786478, i32 0, metadata !330, metadata !"operator=", metadata !"operator=", metadata !"_ZN11ap_int_baseILi33ELb1ELb1EEaSEPKc", metadata !67, i32 1588, metadata !425, i1 false, i1 false, i32 0, i32 0, null, i32 256, i1 false, null, null, i32 0, metadata !83, i32 1588} ; [ DW_TAG_subprogram ]
!425 = metadata !{i32 786453, i32 0, metadata !"", i32 0, i32 0, i64 0, i64 0, i64 0, i32 0, null, metadata !426, i32 0, i32 0} ; [ DW_TAG_subroutine_type ]
!426 = metadata !{metadata !420, metadata !346, metadata !167}
!427 = metadata !{i32 786478, i32 0, metadata !330, metadata !"set", metadata !"set", metadata !"_ZN11ap_int_baseILi33ELb1ELb1EE3setEPKca", metadata !67, i32 1596, metadata !428, i1 false, i1 false, i32 0, i32 0, null, i32 256, i1 false, null, null, i32 0, metadata !83, i32 1596} ; [ DW_TAG_subprogram ]
!428 = metadata !{i32 786453, i32 0, metadata !"", i32 0, i32 0, i64 0, i64 0, i64 0, i32 0, null, metadata !429, i32 0, i32 0} ; [ DW_TAG_subroutine_type ]
!429 = metadata !{metadata !420, metadata !346, metadata !167, metadata !113}
!430 = metadata !{i32 786478, i32 0, metadata !330, metadata !"operator=", metadata !"operator=", metadata !"_ZN11ap_int_baseILi33ELb1ELb1EEaSEa", metadata !67, i32 1610, metadata !431, i1 false, i1 false, i32 0, i32 0, null, i32 256, i1 false, null, null, i32 0, metadata !83, i32 1610} ; [ DW_TAG_subprogram ]
!431 = metadata !{i32 786453, i32 0, metadata !"", i32 0, i32 0, i64 0, i64 0, i64 0, i32 0, null, metadata !432, i32 0, i32 0} ; [ DW_TAG_subroutine_type ]
!432 = metadata !{metadata !420, metadata !346, metadata !113}
!433 = metadata !{i32 786478, i32 0, metadata !330, metadata !"operator=", metadata !"operator=", metadata !"_ZN11ap_int_baseILi33ELb1ELb1EEaSEh", metadata !67, i32 1611, metadata !434, i1 false, i1 false, i32 0, i32 0, null, i32 256, i1 false, null, null, i32 0, metadata !83, i32 1611} ; [ DW_TAG_subprogram ]
!434 = metadata !{i32 786453, i32 0, metadata !"", i32 0, i32 0, i64 0, i64 0, i64 0, i32 0, null, metadata !435, i32 0, i32 0} ; [ DW_TAG_subroutine_type ]
!435 = metadata !{metadata !420, metadata !346, metadata !117}
!436 = metadata !{i32 786478, i32 0, metadata !330, metadata !"operator=", metadata !"operator=", metadata !"_ZN11ap_int_baseILi33ELb1ELb1EEaSEs", metadata !67, i32 1612, metadata !437, i1 false, i1 false, i32 0, i32 0, null, i32 256, i1 false, null, null, i32 0, metadata !83, i32 1612} ; [ DW_TAG_subprogram ]
!437 = metadata !{i32 786453, i32 0, metadata !"", i32 0, i32 0, i64 0, i64 0, i64 0, i32 0, null, metadata !438, i32 0, i32 0} ; [ DW_TAG_subroutine_type ]
!438 = metadata !{metadata !420, metadata !346, metadata !121}
!439 = metadata !{i32 786478, i32 0, metadata !330, metadata !"operator=", metadata !"operator=", metadata !"_ZN11ap_int_baseILi33ELb1ELb1EEaSEt", metadata !67, i32 1613, metadata !440, i1 false, i1 false, i32 0, i32 0, null, i32 256, i1 false, null, null, i32 0, metadata !83, i32 1613} ; [ DW_TAG_subprogram ]
!440 = metadata !{i32 786453, i32 0, metadata !"", i32 0, i32 0, i64 0, i64 0, i64 0, i32 0, null, metadata !441, i32 0, i32 0} ; [ DW_TAG_subroutine_type ]
!441 = metadata !{metadata !420, metadata !346, metadata !125}
!442 = metadata !{i32 786478, i32 0, metadata !330, metadata !"operator=", metadata !"operator=", metadata !"_ZN11ap_int_baseILi33ELb1ELb1EEaSEi", metadata !67, i32 1614, metadata !443, i1 false, i1 false, i32 0, i32 0, null, i32 256, i1 false, null, null, i32 0, metadata !83, i32 1614} ; [ DW_TAG_subprogram ]
!443 = metadata !{i32 786453, i32 0, metadata !"", i32 0, i32 0, i64 0, i64 0, i64 0, i32 0, null, metadata !444, i32 0, i32 0} ; [ DW_TAG_subroutine_type ]
!444 = metadata !{metadata !420, metadata !346, metadata !87}
!445 = metadata !{i32 786478, i32 0, metadata !330, metadata !"operator=", metadata !"operator=", metadata !"_ZN11ap_int_baseILi33ELb1ELb1EEaSEj", metadata !67, i32 1615, metadata !446, i1 false, i1 false, i32 0, i32 0, null, i32 256, i1 false, null, null, i32 0, metadata !83, i32 1615} ; [ DW_TAG_subprogram ]
!446 = metadata !{i32 786453, i32 0, metadata !"", i32 0, i32 0, i64 0, i64 0, i64 0, i32 0, null, metadata !447, i32 0, i32 0} ; [ DW_TAG_subroutine_type ]
!447 = metadata !{metadata !420, metadata !346, metadata !132}
!448 = metadata !{i32 786478, i32 0, metadata !330, metadata !"operator=", metadata !"operator=", metadata !"_ZN11ap_int_baseILi33ELb1ELb1EEaSEx", metadata !67, i32 1616, metadata !449, i1 false, i1 false, i32 0, i32 0, null, i32 256, i1 false, null, null, i32 0, metadata !83, i32 1616} ; [ DW_TAG_subprogram ]
!449 = metadata !{i32 786453, i32 0, metadata !"", i32 0, i32 0, i64 0, i64 0, i64 0, i32 0, null, metadata !450, i32 0, i32 0} ; [ DW_TAG_subroutine_type ]
!450 = metadata !{metadata !420, metadata !346, metadata !144}
!451 = metadata !{i32 786478, i32 0, metadata !330, metadata !"operator=", metadata !"operator=", metadata !"_ZN11ap_int_baseILi33ELb1ELb1EEaSEy", metadata !67, i32 1617, metadata !452, i1 false, i1 false, i32 0, i32 0, null, i32 256, i1 false, null, null, i32 0, metadata !83, i32 1617} ; [ DW_TAG_subprogram ]
!452 = metadata !{i32 786453, i32 0, metadata !"", i32 0, i32 0, i64 0, i64 0, i64 0, i32 0, null, metadata !453, i32 0, i32 0} ; [ DW_TAG_subroutine_type ]
!453 = metadata !{metadata !420, metadata !346, metadata !149}
!454 = metadata !{i32 786478, i32 0, metadata !330, metadata !"operator long long", metadata !"operator long long", metadata !"_ZNK11ap_int_baseILi33ELb1ELb1EEcvxEv", metadata !67, i32 1655, metadata !455, i1 false, i1 false, i32 0, i32 0, null, i32 256, i1 false, null, null, i32 0, metadata !83, i32 1655} ; [ DW_TAG_subprogram ]
!455 = metadata !{i32 786453, i32 0, metadata !"", i32 0, i32 0, i64 0, i64 0, i64 0, i32 0, null, metadata !456, i32 0, i32 0} ; [ DW_TAG_subroutine_type ]
!456 = metadata !{metadata !457, metadata !462}
!457 = metadata !{i32 786454, metadata !330, metadata !"RetType", metadata !67, i32 1403, i64 0, i64 0, i64 0, i32 0, metadata !458} ; [ DW_TAG_typedef ]
!458 = metadata !{i32 786454, metadata !459, metadata !"Type", metadata !67, i32 1360, i64 0, i64 0, i64 0, i32 0, metadata !144} ; [ DW_TAG_typedef ]
!459 = metadata !{i32 786434, null, metadata !"retval<5, true>", metadata !67, i32 1359, i64 8, i64 8, i32 0, i32 0, null, metadata !227, i32 0, null, metadata !460} ; [ DW_TAG_class_type ]
!460 = metadata !{metadata !461, metadata !88}
!461 = metadata !{i32 786480, null, metadata !"_AP_N", metadata !87, i64 5, null, i32 0, i32 0} ; [ DW_TAG_template_value_parameter ]
!462 = metadata !{i32 786447, i32 0, metadata !"", i32 0, i32 0, i64 32, i64 32, i64 0, i32 64, metadata !329} ; [ DW_TAG_pointer_type ]
!463 = metadata !{i32 786478, i32 0, metadata !330, metadata !"to_bool", metadata !"to_bool", metadata !"_ZNK11ap_int_baseILi33ELb1ELb1EE7to_boolEv", metadata !67, i32 1661, metadata !464, i1 false, i1 false, i32 0, i32 0, null, i32 256, i1 false, null, null, i32 0, metadata !83, i32 1661} ; [ DW_TAG_subprogram ]
!464 = metadata !{i32 786453, i32 0, metadata !"", i32 0, i32 0, i64 0, i64 0, i64 0, i32 0, null, metadata !465, i32 0, i32 0} ; [ DW_TAG_subroutine_type ]
!465 = metadata !{metadata !89, metadata !462}
!466 = metadata !{i32 786478, i32 0, metadata !330, metadata !"to_uchar", metadata !"to_uchar", metadata !"_ZNK11ap_int_baseILi33ELb1ELb1EE8to_ucharEv", metadata !67, i32 1662, metadata !467, i1 false, i1 false, i32 0, i32 0, null, i32 256, i1 false, null, null, i32 0, metadata !83, i32 1662} ; [ DW_TAG_subprogram ]
!467 = metadata !{i32 786453, i32 0, metadata !"", i32 0, i32 0, i64 0, i64 0, i64 0, i32 0, null, metadata !468, i32 0, i32 0} ; [ DW_TAG_subroutine_type ]
!468 = metadata !{metadata !117, metadata !462}
!469 = metadata !{i32 786478, i32 0, metadata !330, metadata !"to_char", metadata !"to_char", metadata !"_ZNK11ap_int_baseILi33ELb1ELb1EE7to_charEv", metadata !67, i32 1663, metadata !470, i1 false, i1 false, i32 0, i32 0, null, i32 256, i1 false, null, null, i32 0, metadata !83, i32 1663} ; [ DW_TAG_subprogram ]
!470 = metadata !{i32 786453, i32 0, metadata !"", i32 0, i32 0, i64 0, i64 0, i64 0, i32 0, null, metadata !471, i32 0, i32 0} ; [ DW_TAG_subroutine_type ]
!471 = metadata !{metadata !113, metadata !462}
!472 = metadata !{i32 786478, i32 0, metadata !330, metadata !"to_ushort", metadata !"to_ushort", metadata !"_ZNK11ap_int_baseILi33ELb1ELb1EE9to_ushortEv", metadata !67, i32 1664, metadata !473, i1 false, i1 false, i32 0, i32 0, null, i32 256, i1 false, null, null, i32 0, metadata !83, i32 1664} ; [ DW_TAG_subprogram ]
!473 = metadata !{i32 786453, i32 0, metadata !"", i32 0, i32 0, i64 0, i64 0, i64 0, i32 0, null, metadata !474, i32 0, i32 0} ; [ DW_TAG_subroutine_type ]
!474 = metadata !{metadata !125, metadata !462}
!475 = metadata !{i32 786478, i32 0, metadata !330, metadata !"to_short", metadata !"to_short", metadata !"_ZNK11ap_int_baseILi33ELb1ELb1EE8to_shortEv", metadata !67, i32 1665, metadata !476, i1 false, i1 false, i32 0, i32 0, null, i32 256, i1 false, null, null, i32 0, metadata !83, i32 1665} ; [ DW_TAG_subprogram ]
!476 = metadata !{i32 786453, i32 0, metadata !"", i32 0, i32 0, i64 0, i64 0, i64 0, i32 0, null, metadata !477, i32 0, i32 0} ; [ DW_TAG_subroutine_type ]
!477 = metadata !{metadata !121, metadata !462}
!478 = metadata !{i32 786478, i32 0, metadata !330, metadata !"to_int", metadata !"to_int", metadata !"_ZNK11ap_int_baseILi33ELb1ELb1EE6to_intEv", metadata !67, i32 1666, metadata !479, i1 false, i1 false, i32 0, i32 0, null, i32 256, i1 false, null, null, i32 0, metadata !83, i32 1666} ; [ DW_TAG_subprogram ]
!479 = metadata !{i32 786453, i32 0, metadata !"", i32 0, i32 0, i64 0, i64 0, i64 0, i32 0, null, metadata !480, i32 0, i32 0} ; [ DW_TAG_subroutine_type ]
!480 = metadata !{metadata !87, metadata !462}
!481 = metadata !{i32 786478, i32 0, metadata !330, metadata !"to_uint", metadata !"to_uint", metadata !"_ZNK11ap_int_baseILi33ELb1ELb1EE7to_uintEv", metadata !67, i32 1667, metadata !482, i1 false, i1 false, i32 0, i32 0, null, i32 256, i1 false, null, null, i32 0, metadata !83, i32 1667} ; [ DW_TAG_subprogram ]
!482 = metadata !{i32 786453, i32 0, metadata !"", i32 0, i32 0, i64 0, i64 0, i64 0, i32 0, null, metadata !483, i32 0, i32 0} ; [ DW_TAG_subroutine_type ]
!483 = metadata !{metadata !132, metadata !462}
!484 = metadata !{i32 786478, i32 0, metadata !330, metadata !"to_long", metadata !"to_long", metadata !"_ZNK11ap_int_baseILi33ELb1ELb1EE7to_longEv", metadata !67, i32 1668, metadata !485, i1 false, i1 false, i32 0, i32 0, null, i32 256, i1 false, null, null, i32 0, metadata !83, i32 1668} ; [ DW_TAG_subprogram ]
!485 = metadata !{i32 786453, i32 0, metadata !"", i32 0, i32 0, i64 0, i64 0, i64 0, i32 0, null, metadata !486, i32 0, i32 0} ; [ DW_TAG_subroutine_type ]
!486 = metadata !{metadata !136, metadata !462}
!487 = metadata !{i32 786478, i32 0, metadata !330, metadata !"to_ulong", metadata !"to_ulong", metadata !"_ZNK11ap_int_baseILi33ELb1ELb1EE8to_ulongEv", metadata !67, i32 1669, metadata !488, i1 false, i1 false, i32 0, i32 0, null, i32 256, i1 false, null, null, i32 0, metadata !83, i32 1669} ; [ DW_TAG_subprogram ]
!488 = metadata !{i32 786453, i32 0, metadata !"", i32 0, i32 0, i64 0, i64 0, i64 0, i32 0, null, metadata !489, i32 0, i32 0} ; [ DW_TAG_subroutine_type ]
!489 = metadata !{metadata !140, metadata !462}
!490 = metadata !{i32 786478, i32 0, metadata !330, metadata !"to_int64", metadata !"to_int64", metadata !"_ZNK11ap_int_baseILi33ELb1ELb1EE8to_int64Ev", metadata !67, i32 1670, metadata !491, i1 false, i1 false, i32 0, i32 0, null, i32 256, i1 false, null, null, i32 0, metadata !83, i32 1670} ; [ DW_TAG_subprogram ]
!491 = metadata !{i32 786453, i32 0, metadata !"", i32 0, i32 0, i64 0, i64 0, i64 0, i32 0, null, metadata !492, i32 0, i32 0} ; [ DW_TAG_subroutine_type ]
!492 = metadata !{metadata !144, metadata !462}
!493 = metadata !{i32 786478, i32 0, metadata !330, metadata !"to_uint64", metadata !"to_uint64", metadata !"_ZNK11ap_int_baseILi33ELb1ELb1EE9to_uint64Ev", metadata !67, i32 1671, metadata !494, i1 false, i1 false, i32 0, i32 0, null, i32 256, i1 false, null, null, i32 0, metadata !83, i32 1671} ; [ DW_TAG_subprogram ]
!494 = metadata !{i32 786453, i32 0, metadata !"", i32 0, i32 0, i64 0, i64 0, i64 0, i32 0, null, metadata !495, i32 0, i32 0} ; [ DW_TAG_subroutine_type ]
!495 = metadata !{metadata !149, metadata !462}
!496 = metadata !{i32 786478, i32 0, metadata !330, metadata !"to_double", metadata !"to_double", metadata !"_ZNK11ap_int_baseILi33ELb1ELb1EE9to_doubleEv", metadata !67, i32 1672, metadata !497, i1 false, i1 false, i32 0, i32 0, null, i32 256, i1 false, null, null, i32 0, metadata !83, i32 1672} ; [ DW_TAG_subprogram ]
!497 = metadata !{i32 786453, i32 0, metadata !"", i32 0, i32 0, i64 0, i64 0, i64 0, i32 0, null, metadata !498, i32 0, i32 0} ; [ DW_TAG_subroutine_type ]
!498 = metadata !{metadata !163, metadata !462}
!499 = metadata !{i32 786478, i32 0, metadata !330, metadata !"length", metadata !"length", metadata !"_ZNK11ap_int_baseILi33ELb1ELb1EE6lengthEv", metadata !67, i32 1686, metadata !479, i1 false, i1 false, i32 0, i32 0, null, i32 256, i1 false, null, null, i32 0, metadata !83, i32 1686} ; [ DW_TAG_subprogram ]
!500 = metadata !{i32 786478, i32 0, metadata !330, metadata !"length", metadata !"length", metadata !"_ZNVK11ap_int_baseILi33ELb1ELb1EE6lengthEv", metadata !67, i32 1687, metadata !501, i1 false, i1 false, i32 0, i32 0, null, i32 256, i1 false, null, null, i32 0, metadata !83, i32 1687} ; [ DW_TAG_subprogram ]
!501 = metadata !{i32 786453, i32 0, metadata !"", i32 0, i32 0, i64 0, i64 0, i64 0, i32 0, null, metadata !502, i32 0, i32 0} ; [ DW_TAG_subroutine_type ]
!502 = metadata !{metadata !87, metadata !503}
!503 = metadata !{i32 786447, i32 0, metadata !"", i32 0, i32 0, i64 32, i64 32, i64 0, i32 64, metadata !356} ; [ DW_TAG_pointer_type ]
!504 = metadata !{i32 786478, i32 0, metadata !330, metadata !"reverse", metadata !"reverse", metadata !"_ZN11ap_int_baseILi33ELb1ELb1EE7reverseEv", metadata !67, i32 1692, metadata !505, i1 false, i1 false, i32 0, i32 0, null, i32 256, i1 false, null, null, i32 0, metadata !83, i32 1692} ; [ DW_TAG_subprogram ]
!505 = metadata !{i32 786453, i32 0, metadata !"", i32 0, i32 0, i64 0, i64 0, i64 0, i32 0, null, metadata !506, i32 0, i32 0} ; [ DW_TAG_subroutine_type ]
!506 = metadata !{metadata !420, metadata !346}
!507 = metadata !{i32 786478, i32 0, metadata !330, metadata !"iszero", metadata !"iszero", metadata !"_ZNK11ap_int_baseILi33ELb1ELb1EE6iszeroEv", metadata !67, i32 1698, metadata !464, i1 false, i1 false, i32 0, i32 0, null, i32 256, i1 false, null, null, i32 0, metadata !83, i32 1698} ; [ DW_TAG_subprogram ]
!508 = metadata !{i32 786478, i32 0, metadata !330, metadata !"is_zero", metadata !"is_zero", metadata !"_ZNK11ap_int_baseILi33ELb1ELb1EE7is_zeroEv", metadata !67, i32 1703, metadata !464, i1 false, i1 false, i32 0, i32 0, null, i32 256, i1 false, null, null, i32 0, metadata !83, i32 1703} ; [ DW_TAG_subprogram ]
!509 = metadata !{i32 786478, i32 0, metadata !330, metadata !"sign", metadata !"sign", metadata !"_ZNK11ap_int_baseILi33ELb1ELb1EE4signEv", metadata !67, i32 1708, metadata !464, i1 false, i1 false, i32 0, i32 0, null, i32 256, i1 false, null, null, i32 0, metadata !83, i32 1708} ; [ DW_TAG_subprogram ]
!510 = metadata !{i32 786478, i32 0, metadata !330, metadata !"clear", metadata !"clear", metadata !"_ZN11ap_int_baseILi33ELb1ELb1EE5clearEi", metadata !67, i32 1716, metadata !374, i1 false, i1 false, i32 0, i32 0, null, i32 256, i1 false, null, null, i32 0, metadata !83, i32 1716} ; [ DW_TAG_subprogram ]
!511 = metadata !{i32 786478, i32 0, metadata !330, metadata !"invert", metadata !"invert", metadata !"_ZN11ap_int_baseILi33ELb1ELb1EE6invertEi", metadata !67, i32 1722, metadata !374, i1 false, i1 false, i32 0, i32 0, null, i32 256, i1 false, null, null, i32 0, metadata !83, i32 1722} ; [ DW_TAG_subprogram ]
!512 = metadata !{i32 786478, i32 0, metadata !330, metadata !"test", metadata !"test", metadata !"_ZNK11ap_int_baseILi33ELb1ELb1EE4testEi", metadata !67, i32 1730, metadata !513, i1 false, i1 false, i32 0, i32 0, null, i32 256, i1 false, null, null, i32 0, metadata !83, i32 1730} ; [ DW_TAG_subprogram ]
!513 = metadata !{i32 786453, i32 0, metadata !"", i32 0, i32 0, i64 0, i64 0, i64 0, i32 0, null, metadata !514, i32 0, i32 0} ; [ DW_TAG_subroutine_type ]
!514 = metadata !{metadata !89, metadata !462, metadata !87}
!515 = metadata !{i32 786478, i32 0, metadata !330, metadata !"set", metadata !"set", metadata !"_ZN11ap_int_baseILi33ELb1ELb1EE3setEi", metadata !67, i32 1736, metadata !374, i1 false, i1 false, i32 0, i32 0, null, i32 256, i1 false, null, null, i32 0, metadata !83, i32 1736} ; [ DW_TAG_subprogram ]
!516 = metadata !{i32 786478, i32 0, metadata !330, metadata !"set", metadata !"set", metadata !"_ZN11ap_int_baseILi33ELb1ELb1EE3setEib", metadata !67, i32 1742, metadata !517, i1 false, i1 false, i32 0, i32 0, null, i32 256, i1 false, null, null, i32 0, metadata !83, i32 1742} ; [ DW_TAG_subprogram ]
!517 = metadata !{i32 786453, i32 0, metadata !"", i32 0, i32 0, i64 0, i64 0, i64 0, i32 0, null, metadata !518, i32 0, i32 0} ; [ DW_TAG_subroutine_type ]
!518 = metadata !{null, metadata !346, metadata !87, metadata !89}
!519 = metadata !{i32 786478, i32 0, metadata !330, metadata !"lrotate", metadata !"lrotate", metadata !"_ZN11ap_int_baseILi33ELb1ELb1EE7lrotateEi", metadata !67, i32 1749, metadata !374, i1 false, i1 false, i32 0, i32 0, null, i32 256, i1 false, null, null, i32 0, metadata !83, i32 1749} ; [ DW_TAG_subprogram ]
!520 = metadata !{i32 786478, i32 0, metadata !330, metadata !"rrotate", metadata !"rrotate", metadata !"_ZN11ap_int_baseILi33ELb1ELb1EE7rrotateEi", metadata !67, i32 1758, metadata !374, i1 false, i1 false, i32 0, i32 0, null, i32 256, i1 false, null, null, i32 0, metadata !83, i32 1758} ; [ DW_TAG_subprogram ]
!521 = metadata !{i32 786478, i32 0, metadata !330, metadata !"set_bit", metadata !"set_bit", metadata !"_ZN11ap_int_baseILi33ELb1ELb1EE7set_bitEib", metadata !67, i32 1766, metadata !517, i1 false, i1 false, i32 0, i32 0, null, i32 256, i1 false, null, null, i32 0, metadata !83, i32 1766} ; [ DW_TAG_subprogram ]
!522 = metadata !{i32 786478, i32 0, metadata !330, metadata !"get_bit", metadata !"get_bit", metadata !"_ZNK11ap_int_baseILi33ELb1ELb1EE7get_bitEi", metadata !67, i32 1771, metadata !513, i1 false, i1 false, i32 0, i32 0, null, i32 256, i1 false, null, null, i32 0, metadata !83, i32 1771} ; [ DW_TAG_subprogram ]
!523 = metadata !{i32 786478, i32 0, metadata !330, metadata !"b_not", metadata !"b_not", metadata !"_ZN11ap_int_baseILi33ELb1ELb1EE5b_notEv", metadata !67, i32 1776, metadata !344, i1 false, i1 false, i32 0, i32 0, null, i32 256, i1 false, null, null, i32 0, metadata !83, i32 1776} ; [ DW_TAG_subprogram ]
!524 = metadata !{i32 786478, i32 0, metadata !330, metadata !"countLeadingZeros", metadata !"countLeadingZeros", metadata !"_ZN11ap_int_baseILi33ELb1ELb1EE17countLeadingZerosEv", metadata !67, i32 1783, metadata !525, i1 false, i1 false, i32 0, i32 0, null, i32 256, i1 false, null, null, i32 0, metadata !83, i32 1783} ; [ DW_TAG_subprogram ]
!525 = metadata !{i32 786453, i32 0, metadata !"", i32 0, i32 0, i64 0, i64 0, i64 0, i32 0, null, metadata !526, i32 0, i32 0} ; [ DW_TAG_subroutine_type ]
!526 = metadata !{metadata !87, metadata !346}
!527 = metadata !{i32 786478, i32 0, metadata !330, metadata !"operator++", metadata !"operator++", metadata !"_ZN11ap_int_baseILi33ELb1ELb1EEppEv", metadata !67, i32 1840, metadata !505, i1 false, i1 false, i32 0, i32 0, null, i32 256, i1 false, null, null, i32 0, metadata !83, i32 1840} ; [ DW_TAG_subprogram ]
!528 = metadata !{i32 786478, i32 0, metadata !330, metadata !"operator--", metadata !"operator--", metadata !"_ZN11ap_int_baseILi33ELb1ELb1EEmmEv", metadata !67, i32 1844, metadata !505, i1 false, i1 false, i32 0, i32 0, null, i32 256, i1 false, null, null, i32 0, metadata !83, i32 1844} ; [ DW_TAG_subprogram ]
!529 = metadata !{i32 786478, i32 0, metadata !330, metadata !"operator++", metadata !"operator++", metadata !"_ZN11ap_int_baseILi33ELb1ELb1EEppEi", metadata !67, i32 1852, metadata !530, i1 false, i1 false, i32 0, i32 0, null, i32 256, i1 false, null, null, i32 0, metadata !83, i32 1852} ; [ DW_TAG_subprogram ]
!530 = metadata !{i32 786453, i32 0, metadata !"", i32 0, i32 0, i64 0, i64 0, i64 0, i32 0, null, metadata !531, i32 0, i32 0} ; [ DW_TAG_subroutine_type ]
!531 = metadata !{metadata !329, metadata !346, metadata !87}
!532 = metadata !{i32 786478, i32 0, metadata !330, metadata !"operator--", metadata !"operator--", metadata !"_ZN11ap_int_baseILi33ELb1ELb1EEmmEi", metadata !67, i32 1857, metadata !530, i1 false, i1 false, i32 0, i32 0, null, i32 256, i1 false, null, null, i32 0, metadata !83, i32 1857} ; [ DW_TAG_subprogram ]
!533 = metadata !{i32 786478, i32 0, metadata !330, metadata !"operator+", metadata !"operator+", metadata !"_ZNK11ap_int_baseILi33ELb1ELb1EEpsEv", metadata !67, i32 1866, metadata !534, i1 false, i1 false, i32 0, i32 0, null, i32 256, i1 false, null, null, i32 0, metadata !83, i32 1866} ; [ DW_TAG_subprogram ]
!534 = metadata !{i32 786453, i32 0, metadata !"", i32 0, i32 0, i64 0, i64 0, i64 0, i32 0, null, metadata !535, i32 0, i32 0} ; [ DW_TAG_subroutine_type ]
!535 = metadata !{metadata !330, metadata !462}
!536 = metadata !{i32 786478, i32 0, metadata !330, metadata !"operator!", metadata !"operator!", metadata !"_ZNK11ap_int_baseILi33ELb1ELb1EEntEv", metadata !67, i32 1872, metadata !464, i1 false, i1 false, i32 0, i32 0, null, i32 256, i1 false, null, null, i32 0, metadata !83, i32 1872} ; [ DW_TAG_subprogram ]
!537 = metadata !{i32 786478, i32 0, metadata !330, metadata !"operator-", metadata !"operator-", metadata !"_ZNK11ap_int_baseILi33ELb1ELb1EEngEv", metadata !67, i32 1877, metadata !538, i1 false, i1 false, i32 0, i32 0, null, i32 256, i1 false, null, null, i32 0, metadata !83, i32 1877} ; [ DW_TAG_subprogram ]
!538 = metadata !{i32 786453, i32 0, metadata !"", i32 0, i32 0, i64 0, i64 0, i64 0, i32 0, null, metadata !539, i32 0, i32 0} ; [ DW_TAG_subroutine_type ]
!539 = metadata !{metadata !540, metadata !462}
!540 = metadata !{i32 786434, null, metadata !"ap_int_base<34, true, true>", metadata !67, i32 651, i32 0, i32 0, i32 0, i32 4, null, null, i32 0} ; [ DW_TAG_class_type ]
!541 = metadata !{i32 786478, i32 0, metadata !330, metadata !"range", metadata !"range", metadata !"_ZN11ap_int_baseILi33ELb1ELb1EE5rangeEii", metadata !67, i32 2007, metadata !542, i1 false, i1 false, i32 0, i32 0, null, i32 256, i1 false, null, null, i32 0, metadata !83, i32 2007} ; [ DW_TAG_subprogram ]
!542 = metadata !{i32 786453, i32 0, metadata !"", i32 0, i32 0, i64 0, i64 0, i64 0, i32 0, null, metadata !543, i32 0, i32 0} ; [ DW_TAG_subroutine_type ]
!543 = metadata !{metadata !544, metadata !346, metadata !87, metadata !87}
!544 = metadata !{i32 786434, null, metadata !"ap_range_ref<33, true>", metadata !67, i32 924, i32 0, i32 0, i32 0, i32 4, null, null, i32 0} ; [ DW_TAG_class_type ]
!545 = metadata !{i32 786478, i32 0, metadata !330, metadata !"operator()", metadata !"operator()", metadata !"_ZN11ap_int_baseILi33ELb1ELb1EEclEii", metadata !67, i32 2013, metadata !542, i1 false, i1 false, i32 0, i32 0, null, i32 256, i1 false, null, null, i32 0, metadata !83, i32 2013} ; [ DW_TAG_subprogram ]
!546 = metadata !{i32 786478, i32 0, metadata !330, metadata !"range", metadata !"range", metadata !"_ZNK11ap_int_baseILi33ELb1ELb1EE5rangeEii", metadata !67, i32 2019, metadata !547, i1 false, i1 false, i32 0, i32 0, null, i32 256, i1 false, null, null, i32 0, metadata !83, i32 2019} ; [ DW_TAG_subprogram ]
!547 = metadata !{i32 786453, i32 0, metadata !"", i32 0, i32 0, i64 0, i64 0, i64 0, i32 0, null, metadata !548, i32 0, i32 0} ; [ DW_TAG_subroutine_type ]
!548 = metadata !{metadata !544, metadata !462, metadata !87, metadata !87}
!549 = metadata !{i32 786478, i32 0, metadata !330, metadata !"operator()", metadata !"operator()", metadata !"_ZNK11ap_int_baseILi33ELb1ELb1EEclEii", metadata !67, i32 2025, metadata !547, i1 false, i1 false, i32 0, i32 0, null, i32 256, i1 false, null, null, i32 0, metadata !83, i32 2025} ; [ DW_TAG_subprogram ]
!550 = metadata !{i32 786478, i32 0, metadata !330, metadata !"operator[]", metadata !"operator[]", metadata !"_ZN11ap_int_baseILi33ELb1ELb1EEixEi", metadata !67, i32 2044, metadata !551, i1 false, i1 false, i32 0, i32 0, null, i32 256, i1 false, null, null, i32 0, metadata !83, i32 2044} ; [ DW_TAG_subprogram ]
!551 = metadata !{i32 786453, i32 0, metadata !"", i32 0, i32 0, i64 0, i64 0, i64 0, i32 0, null, metadata !552, i32 0, i32 0} ; [ DW_TAG_subroutine_type ]
!552 = metadata !{metadata !553, metadata !346, metadata !87}
!553 = metadata !{i32 786434, null, metadata !"ap_bit_ref<33, true>", metadata !67, i32 1194, i64 64, i64 32, i32 0, i32 0, null, metadata !554, i32 0, null, metadata !587} ; [ DW_TAG_class_type ]
!554 = metadata !{metadata !555, metadata !556, metadata !557, metadata !563, metadata !567, metadata !571, metadata !572, metadata !576, metadata !579, metadata !580, metadata !583, metadata !584}
!555 = metadata !{i32 786445, metadata !553, metadata !"d_bv", metadata !67, i32 1195, i64 32, i64 32, i64 0, i32 0, metadata !420} ; [ DW_TAG_member ]
!556 = metadata !{i32 786445, metadata !553, metadata !"d_index", metadata !67, i32 1196, i64 32, i64 32, i64 32, i32 0, metadata !87} ; [ DW_TAG_member ]
!557 = metadata !{i32 786478, i32 0, metadata !553, metadata !"ap_bit_ref", metadata !"ap_bit_ref", metadata !"", metadata !67, i32 1199, metadata !558, i1 false, i1 false, i32 0, i32 0, null, i32 256, i1 false, null, null, i32 0, metadata !83, i32 1199} ; [ DW_TAG_subprogram ]
!558 = metadata !{i32 786453, i32 0, metadata !"", i32 0, i32 0, i64 0, i64 0, i64 0, i32 0, null, metadata !559, i32 0, i32 0} ; [ DW_TAG_subroutine_type ]
!559 = metadata !{null, metadata !560, metadata !561}
!560 = metadata !{i32 786447, i32 0, metadata !"", i32 0, i32 0, i64 32, i64 32, i64 0, i32 64, metadata !553} ; [ DW_TAG_pointer_type ]
!561 = metadata !{i32 786448, null, null, null, i32 0, i64 0, i64 0, i64 0, i32 0, metadata !562} ; [ DW_TAG_reference_type ]
!562 = metadata !{i32 786470, null, metadata !"", null, i32 0, i64 0, i64 0, i64 0, i32 0, metadata !553} ; [ DW_TAG_const_type ]
!563 = metadata !{i32 786478, i32 0, metadata !553, metadata !"ap_bit_ref", metadata !"ap_bit_ref", metadata !"", metadata !67, i32 1202, metadata !564, i1 false, i1 false, i32 0, i32 0, null, i32 256, i1 false, null, null, i32 0, metadata !83, i32 1202} ; [ DW_TAG_subprogram ]
!564 = metadata !{i32 786453, i32 0, metadata !"", i32 0, i32 0, i64 0, i64 0, i64 0, i32 0, null, metadata !565, i32 0, i32 0} ; [ DW_TAG_subroutine_type ]
!565 = metadata !{null, metadata !560, metadata !566, metadata !87}
!566 = metadata !{i32 786447, null, metadata !"", null, i32 0, i64 32, i64 32, i64 0, i32 0, metadata !330} ; [ DW_TAG_pointer_type ]
!567 = metadata !{i32 786478, i32 0, metadata !553, metadata !"operator _Bool", metadata !"operator _Bool", metadata !"_ZNK10ap_bit_refILi33ELb1EEcvbEv", metadata !67, i32 1204, metadata !568, i1 false, i1 false, i32 0, i32 0, null, i32 256, i1 false, null, null, i32 0, metadata !83, i32 1204} ; [ DW_TAG_subprogram ]
!568 = metadata !{i32 786453, i32 0, metadata !"", i32 0, i32 0, i64 0, i64 0, i64 0, i32 0, null, metadata !569, i32 0, i32 0} ; [ DW_TAG_subroutine_type ]
!569 = metadata !{metadata !89, metadata !570}
!570 = metadata !{i32 786447, i32 0, metadata !"", i32 0, i32 0, i64 32, i64 32, i64 0, i32 64, metadata !562} ; [ DW_TAG_pointer_type ]
!571 = metadata !{i32 786478, i32 0, metadata !553, metadata !"to_bool", metadata !"to_bool", metadata !"_ZNK10ap_bit_refILi33ELb1EE7to_boolEv", metadata !67, i32 1205, metadata !568, i1 false, i1 false, i32 0, i32 0, null, i32 256, i1 false, null, null, i32 0, metadata !83, i32 1205} ; [ DW_TAG_subprogram ]
!572 = metadata !{i32 786478, i32 0, metadata !553, metadata !"operator=", metadata !"operator=", metadata !"_ZN10ap_bit_refILi33ELb1EEaSEy", metadata !67, i32 1207, metadata !573, i1 false, i1 false, i32 0, i32 0, null, i32 256, i1 false, null, null, i32 0, metadata !83, i32 1207} ; [ DW_TAG_subprogram ]
!573 = metadata !{i32 786453, i32 0, metadata !"", i32 0, i32 0, i64 0, i64 0, i64 0, i32 0, null, metadata !574, i32 0, i32 0} ; [ DW_TAG_subroutine_type ]
!574 = metadata !{metadata !575, metadata !560, metadata !150}
!575 = metadata !{i32 786448, null, null, null, i32 0, i64 0, i64 0, i64 0, i32 0, metadata !553} ; [ DW_TAG_reference_type ]
!576 = metadata !{i32 786478, i32 0, metadata !553, metadata !"operator=", metadata !"operator=", metadata !"_ZN10ap_bit_refILi33ELb1EEaSERKS0_", metadata !67, i32 1227, metadata !577, i1 false, i1 false, i32 0, i32 0, null, i32 256, i1 false, null, null, i32 0, metadata !83, i32 1227} ; [ DW_TAG_subprogram ]
!577 = metadata !{i32 786453, i32 0, metadata !"", i32 0, i32 0, i64 0, i64 0, i64 0, i32 0, null, metadata !578, i32 0, i32 0} ; [ DW_TAG_subroutine_type ]
!578 = metadata !{metadata !575, metadata !560, metadata !561}
!579 = metadata !{i32 786478, i32 0, metadata !553, metadata !"get", metadata !"get", metadata !"_ZNK10ap_bit_refILi33ELb1EE3getEv", metadata !67, i32 1335, metadata !568, i1 false, i1 false, i32 0, i32 0, null, i32 256, i1 false, null, null, i32 0, metadata !83, i32 1335} ; [ DW_TAG_subprogram ]
!580 = metadata !{i32 786478, i32 0, metadata !553, metadata !"get", metadata !"get", metadata !"_ZN10ap_bit_refILi33ELb1EE3getEv", metadata !67, i32 1339, metadata !581, i1 false, i1 false, i32 0, i32 0, null, i32 256, i1 false, null, null, i32 0, metadata !83, i32 1339} ; [ DW_TAG_subprogram ]
!581 = metadata !{i32 786453, i32 0, metadata !"", i32 0, i32 0, i64 0, i64 0, i64 0, i32 0, null, metadata !582, i32 0, i32 0} ; [ DW_TAG_subroutine_type ]
!582 = metadata !{metadata !89, metadata !560}
!583 = metadata !{i32 786478, i32 0, metadata !553, metadata !"operator~", metadata !"operator~", metadata !"_ZNK10ap_bit_refILi33ELb1EEcoEv", metadata !67, i32 1348, metadata !568, i1 false, i1 false, i32 0, i32 0, null, i32 256, i1 false, null, null, i32 0, metadata !83, i32 1348} ; [ DW_TAG_subprogram ]
!584 = metadata !{i32 786478, i32 0, metadata !553, metadata !"length", metadata !"length", metadata !"_ZNK10ap_bit_refILi33ELb1EE6lengthEv", metadata !67, i32 1353, metadata !585, i1 false, i1 false, i32 0, i32 0, null, i32 256, i1 false, null, null, i32 0, metadata !83, i32 1353} ; [ DW_TAG_subprogram ]
!585 = metadata !{i32 786453, i32 0, metadata !"", i32 0, i32 0, i64 0, i64 0, i64 0, i32 0, null, metadata !586, i32 0, i32 0} ; [ DW_TAG_subroutine_type ]
!586 = metadata !{metadata !87, metadata !570}
!587 = metadata !{metadata !588, metadata !88}
!588 = metadata !{i32 786480, null, metadata !"_AP_W", metadata !87, i64 33, null, i32 0, i32 0} ; [ DW_TAG_template_value_parameter ]
!589 = metadata !{i32 786478, i32 0, metadata !330, metadata !"operator[]", metadata !"operator[]", metadata !"_ZNK11ap_int_baseILi33ELb1ELb1EEixEi", metadata !67, i32 2058, metadata !513, i1 false, i1 false, i32 0, i32 0, null, i32 256, i1 false, null, null, i32 0, metadata !83, i32 2058} ; [ DW_TAG_subprogram ]
!590 = metadata !{i32 786478, i32 0, metadata !330, metadata !"bit", metadata !"bit", metadata !"_ZN11ap_int_baseILi33ELb1ELb1EE3bitEi", metadata !67, i32 2072, metadata !551, i1 false, i1 false, i32 0, i32 0, null, i32 256, i1 false, null, null, i32 0, metadata !83, i32 2072} ; [ DW_TAG_subprogram ]
!591 = metadata !{i32 786478, i32 0, metadata !330, metadata !"bit", metadata !"bit", metadata !"_ZNK11ap_int_baseILi33ELb1ELb1EE3bitEi", metadata !67, i32 2086, metadata !513, i1 false, i1 false, i32 0, i32 0, null, i32 256, i1 false, null, null, i32 0, metadata !83, i32 2086} ; [ DW_TAG_subprogram ]
!592 = metadata !{i32 786478, i32 0, metadata !330, metadata !"and_reduce", metadata !"and_reduce", metadata !"_ZN11ap_int_baseILi33ELb1ELb1EE10and_reduceEv", metadata !67, i32 2266, metadata !593, i1 false, i1 false, i32 0, i32 0, null, i32 256, i1 false, null, null, i32 0, metadata !83, i32 2266} ; [ DW_TAG_subprogram ]
!593 = metadata !{i32 786453, i32 0, metadata !"", i32 0, i32 0, i64 0, i64 0, i64 0, i32 0, null, metadata !594, i32 0, i32 0} ; [ DW_TAG_subroutine_type ]
!594 = metadata !{metadata !89, metadata !346}
!595 = metadata !{i32 786478, i32 0, metadata !330, metadata !"nand_reduce", metadata !"nand_reduce", metadata !"_ZN11ap_int_baseILi33ELb1ELb1EE11nand_reduceEv", metadata !67, i32 2269, metadata !593, i1 false, i1 false, i32 0, i32 0, null, i32 256, i1 false, null, null, i32 0, metadata !83, i32 2269} ; [ DW_TAG_subprogram ]
!596 = metadata !{i32 786478, i32 0, metadata !330, metadata !"or_reduce", metadata !"or_reduce", metadata !"_ZN11ap_int_baseILi33ELb1ELb1EE9or_reduceEv", metadata !67, i32 2272, metadata !593, i1 false, i1 false, i32 0, i32 0, null, i32 256, i1 false, null, null, i32 0, metadata !83, i32 2272} ; [ DW_TAG_subprogram ]
!597 = metadata !{i32 786478, i32 0, metadata !330, metadata !"nor_reduce", metadata !"nor_reduce", metadata !"_ZN11ap_int_baseILi33ELb1ELb1EE10nor_reduceEv", metadata !67, i32 2275, metadata !593, i1 false, i1 false, i32 0, i32 0, null, i32 256, i1 false, null, null, i32 0, metadata !83, i32 2275} ; [ DW_TAG_subprogram ]
!598 = metadata !{i32 786478, i32 0, metadata !330, metadata !"xor_reduce", metadata !"xor_reduce", metadata !"_ZN11ap_int_baseILi33ELb1ELb1EE10xor_reduceEv", metadata !67, i32 2278, metadata !593, i1 false, i1 false, i32 0, i32 0, null, i32 256, i1 false, null, null, i32 0, metadata !83, i32 2278} ; [ DW_TAG_subprogram ]
!599 = metadata !{i32 786478, i32 0, metadata !330, metadata !"xnor_reduce", metadata !"xnor_reduce", metadata !"_ZN11ap_int_baseILi33ELb1ELb1EE11xnor_reduceEv", metadata !67, i32 2281, metadata !593, i1 false, i1 false, i32 0, i32 0, null, i32 256, i1 false, null, null, i32 0, metadata !83, i32 2281} ; [ DW_TAG_subprogram ]
!600 = metadata !{i32 786478, i32 0, metadata !330, metadata !"and_reduce", metadata !"and_reduce", metadata !"_ZNK11ap_int_baseILi33ELb1ELb1EE10and_reduceEv", metadata !67, i32 2285, metadata !464, i1 false, i1 false, i32 0, i32 0, null, i32 256, i1 false, null, null, i32 0, metadata !83, i32 2285} ; [ DW_TAG_subprogram ]
!601 = metadata !{i32 786478, i32 0, metadata !330, metadata !"nand_reduce", metadata !"nand_reduce", metadata !"_ZNK11ap_int_baseILi33ELb1ELb1EE11nand_reduceEv", metadata !67, i32 2288, metadata !464, i1 false, i1 false, i32 0, i32 0, null, i32 256, i1 false, null, null, i32 0, metadata !83, i32 2288} ; [ DW_TAG_subprogram ]
!602 = metadata !{i32 786478, i32 0, metadata !330, metadata !"or_reduce", metadata !"or_reduce", metadata !"_ZNK11ap_int_baseILi33ELb1ELb1EE9or_reduceEv", metadata !67, i32 2291, metadata !464, i1 false, i1 false, i32 0, i32 0, null, i32 256, i1 false, null, null, i32 0, metadata !83, i32 2291} ; [ DW_TAG_subprogram ]
!603 = metadata !{i32 786478, i32 0, metadata !330, metadata !"nor_reduce", metadata !"nor_reduce", metadata !"_ZNK11ap_int_baseILi33ELb1ELb1EE10nor_reduceEv", metadata !67, i32 2294, metadata !464, i1 false, i1 false, i32 0, i32 0, null, i32 256, i1 false, null, null, i32 0, metadata !83, i32 2294} ; [ DW_TAG_subprogram ]
!604 = metadata !{i32 786478, i32 0, metadata !330, metadata !"xor_reduce", metadata !"xor_reduce", metadata !"_ZNK11ap_int_baseILi33ELb1ELb1EE10xor_reduceEv", metadata !67, i32 2297, metadata !464, i1 false, i1 false, i32 0, i32 0, null, i32 256, i1 false, null, null, i32 0, metadata !83, i32 2297} ; [ DW_TAG_subprogram ]
!605 = metadata !{i32 786478, i32 0, metadata !330, metadata !"xnor_reduce", metadata !"xnor_reduce", metadata !"_ZNK11ap_int_baseILi33ELb1ELb1EE11xnor_reduceEv", metadata !67, i32 2300, metadata !464, i1 false, i1 false, i32 0, i32 0, null, i32 256, i1 false, null, null, i32 0, metadata !83, i32 2300} ; [ DW_TAG_subprogram ]
!606 = metadata !{i32 786478, i32 0, metadata !330, metadata !"to_string", metadata !"to_string", metadata !"_ZNK11ap_int_baseILi33ELb1ELb1EE9to_stringEPci8BaseModeb", metadata !67, i32 2307, metadata !607, i1 false, i1 false, i32 0, i32 0, null, i32 256, i1 false, null, null, i32 0, metadata !83, i32 2307} ; [ DW_TAG_subprogram ]
!607 = metadata !{i32 786453, i32 0, metadata !"", i32 0, i32 0, i64 0, i64 0, i64 0, i32 0, null, metadata !608, i32 0, i32 0} ; [ DW_TAG_subroutine_type ]
!608 = metadata !{null, metadata !462, metadata !609, metadata !87, metadata !610, metadata !89}
!609 = metadata !{i32 786447, null, metadata !"", null, i32 0, i64 32, i64 32, i64 0, i32 0, metadata !169} ; [ DW_TAG_pointer_type ]
!610 = metadata !{i32 786436, null, metadata !"BaseMode", metadata !67, i32 603, i64 5, i64 8, i32 0, i32 0, null, metadata !611, i32 0, i32 0} ; [ DW_TAG_enumeration_type ]
!611 = metadata !{metadata !612, metadata !613, metadata !614, metadata !615}
!612 = metadata !{i32 786472, metadata !"SC_BIN", i64 2} ; [ DW_TAG_enumerator ]
!613 = metadata !{i32 786472, metadata !"SC_OCT", i64 8} ; [ DW_TAG_enumerator ]
!614 = metadata !{i32 786472, metadata !"SC_DEC", i64 10} ; [ DW_TAG_enumerator ]
!615 = metadata !{i32 786472, metadata !"SC_HEX", i64 16} ; [ DW_TAG_enumerator ]
!616 = metadata !{i32 786478, i32 0, metadata !330, metadata !"to_string", metadata !"to_string", metadata !"_ZNK11ap_int_baseILi33ELb1ELb1EE9to_stringE8BaseModeb", metadata !67, i32 2334, metadata !617, i1 false, i1 false, i32 0, i32 0, null, i32 256, i1 false, null, null, i32 0, metadata !83, i32 2334} ; [ DW_TAG_subprogram ]
!617 = metadata !{i32 786453, i32 0, metadata !"", i32 0, i32 0, i64 0, i64 0, i64 0, i32 0, null, metadata !618, i32 0, i32 0} ; [ DW_TAG_subroutine_type ]
!618 = metadata !{metadata !609, metadata !462, metadata !610, metadata !89}
!619 = metadata !{i32 786478, i32 0, metadata !330, metadata !"to_string", metadata !"to_string", metadata !"_ZNK11ap_int_baseILi33ELb1ELb1EE9to_stringEab", metadata !67, i32 2338, metadata !620, i1 false, i1 false, i32 0, i32 0, null, i32 256, i1 false, null, null, i32 0, metadata !83, i32 2338} ; [ DW_TAG_subprogram ]
!620 = metadata !{i32 786453, i32 0, metadata !"", i32 0, i32 0, i64 0, i64 0, i64 0, i32 0, null, metadata !621, i32 0, i32 0} ; [ DW_TAG_subroutine_type ]
!621 = metadata !{metadata !609, metadata !462, metadata !113, metadata !89}
!622 = metadata !{metadata !588, metadata !88, metadata !623}
!623 = metadata !{i32 786480, null, metadata !"_AP_C", metadata !89, i64 1, null, i32 0, i32 0} ; [ DW_TAG_template_value_parameter ]
!624 = metadata !{i32 786478, i32 0, metadata !308, metadata !"ap_int_base<33, true>", metadata !"ap_int_base<33, true>", metadata !"", metadata !67, i32 1454, metadata !625, i1 false, i1 false, i32 0, i32 0, null, i32 256, i1 false, null, metadata !350, i32 0, metadata !83, i32 1454} ; [ DW_TAG_subprogram ]
!625 = metadata !{i32 786453, i32 0, metadata !"", i32 0, i32 0, i64 0, i64 0, i64 0, i32 0, null, metadata !626, i32 0, i32 0} ; [ DW_TAG_subroutine_type ]
!626 = metadata !{null, metadata !324, metadata !355}
!627 = metadata !{i32 786478, i32 0, metadata !308, metadata !"ap_int_base", metadata !"ap_int_base", metadata !"", metadata !67, i32 1461, metadata !628, i1 false, i1 false, i32 0, i32 0, null, i32 384, i1 false, null, null, i32 0, metadata !83, i32 1461} ; [ DW_TAG_subprogram ]
!628 = metadata !{i32 786453, i32 0, metadata !"", i32 0, i32 0, i64 0, i64 0, i64 0, i32 0, null, metadata !629, i32 0, i32 0} ; [ DW_TAG_subroutine_type ]
!629 = metadata !{null, metadata !324, metadata !89}
!630 = metadata !{i32 786478, i32 0, metadata !308, metadata !"ap_int_base", metadata !"ap_int_base", metadata !"", metadata !67, i32 1462, metadata !631, i1 false, i1 false, i32 0, i32 0, null, i32 384, i1 false, null, null, i32 0, metadata !83, i32 1462} ; [ DW_TAG_subprogram ]
!631 = metadata !{i32 786453, i32 0, metadata !"", i32 0, i32 0, i64 0, i64 0, i64 0, i32 0, null, metadata !632, i32 0, i32 0} ; [ DW_TAG_subroutine_type ]
!632 = metadata !{null, metadata !324, metadata !113}
!633 = metadata !{i32 786478, i32 0, metadata !308, metadata !"ap_int_base", metadata !"ap_int_base", metadata !"", metadata !67, i32 1463, metadata !634, i1 false, i1 false, i32 0, i32 0, null, i32 384, i1 false, null, null, i32 0, metadata !83, i32 1463} ; [ DW_TAG_subprogram ]
!634 = metadata !{i32 786453, i32 0, metadata !"", i32 0, i32 0, i64 0, i64 0, i64 0, i32 0, null, metadata !635, i32 0, i32 0} ; [ DW_TAG_subroutine_type ]
!635 = metadata !{null, metadata !324, metadata !117}
!636 = metadata !{i32 786478, i32 0, metadata !308, metadata !"ap_int_base", metadata !"ap_int_base", metadata !"", metadata !67, i32 1464, metadata !637, i1 false, i1 false, i32 0, i32 0, null, i32 384, i1 false, null, null, i32 0, metadata !83, i32 1464} ; [ DW_TAG_subprogram ]
!637 = metadata !{i32 786453, i32 0, metadata !"", i32 0, i32 0, i64 0, i64 0, i64 0, i32 0, null, metadata !638, i32 0, i32 0} ; [ DW_TAG_subroutine_type ]
!638 = metadata !{null, metadata !324, metadata !121}
!639 = metadata !{i32 786478, i32 0, metadata !308, metadata !"ap_int_base", metadata !"ap_int_base", metadata !"", metadata !67, i32 1465, metadata !640, i1 false, i1 false, i32 0, i32 0, null, i32 384, i1 false, null, null, i32 0, metadata !83, i32 1465} ; [ DW_TAG_subprogram ]
!640 = metadata !{i32 786453, i32 0, metadata !"", i32 0, i32 0, i64 0, i64 0, i64 0, i32 0, null, metadata !641, i32 0, i32 0} ; [ DW_TAG_subroutine_type ]
!641 = metadata !{null, metadata !324, metadata !125}
!642 = metadata !{i32 786478, i32 0, metadata !308, metadata !"ap_int_base", metadata !"ap_int_base", metadata !"", metadata !67, i32 1466, metadata !643, i1 false, i1 false, i32 0, i32 0, null, i32 384, i1 false, null, null, i32 0, metadata !83, i32 1466} ; [ DW_TAG_subprogram ]
!643 = metadata !{i32 786453, i32 0, metadata !"", i32 0, i32 0, i64 0, i64 0, i64 0, i32 0, null, metadata !644, i32 0, i32 0} ; [ DW_TAG_subroutine_type ]
!644 = metadata !{null, metadata !324, metadata !87}
!645 = metadata !{i32 786478, i32 0, metadata !308, metadata !"ap_int_base", metadata !"ap_int_base", metadata !"", metadata !67, i32 1467, metadata !646, i1 false, i1 false, i32 0, i32 0, null, i32 384, i1 false, null, null, i32 0, metadata !83, i32 1467} ; [ DW_TAG_subprogram ]
!646 = metadata !{i32 786453, i32 0, metadata !"", i32 0, i32 0, i64 0, i64 0, i64 0, i32 0, null, metadata !647, i32 0, i32 0} ; [ DW_TAG_subroutine_type ]
!647 = metadata !{null, metadata !324, metadata !132}
!648 = metadata !{i32 786478, i32 0, metadata !308, metadata !"ap_int_base", metadata !"ap_int_base", metadata !"", metadata !67, i32 1468, metadata !649, i1 false, i1 false, i32 0, i32 0, null, i32 384, i1 false, null, null, i32 0, metadata !83, i32 1468} ; [ DW_TAG_subprogram ]
!649 = metadata !{i32 786453, i32 0, metadata !"", i32 0, i32 0, i64 0, i64 0, i64 0, i32 0, null, metadata !650, i32 0, i32 0} ; [ DW_TAG_subroutine_type ]
!650 = metadata !{null, metadata !324, metadata !136}
!651 = metadata !{i32 786478, i32 0, metadata !308, metadata !"ap_int_base", metadata !"ap_int_base", metadata !"", metadata !67, i32 1469, metadata !652, i1 false, i1 false, i32 0, i32 0, null, i32 384, i1 false, null, null, i32 0, metadata !83, i32 1469} ; [ DW_TAG_subprogram ]
!652 = metadata !{i32 786453, i32 0, metadata !"", i32 0, i32 0, i64 0, i64 0, i64 0, i32 0, null, metadata !653, i32 0, i32 0} ; [ DW_TAG_subroutine_type ]
!653 = metadata !{null, metadata !324, metadata !140}
!654 = metadata !{i32 786478, i32 0, metadata !308, metadata !"ap_int_base", metadata !"ap_int_base", metadata !"", metadata !67, i32 1470, metadata !655, i1 false, i1 false, i32 0, i32 0, null, i32 384, i1 false, null, null, i32 0, metadata !83, i32 1470} ; [ DW_TAG_subprogram ]
!655 = metadata !{i32 786453, i32 0, metadata !"", i32 0, i32 0, i64 0, i64 0, i64 0, i32 0, null, metadata !656, i32 0, i32 0} ; [ DW_TAG_subroutine_type ]
!656 = metadata !{null, metadata !324, metadata !144}
!657 = metadata !{i32 786478, i32 0, metadata !308, metadata !"ap_int_base", metadata !"ap_int_base", metadata !"", metadata !67, i32 1471, metadata !658, i1 false, i1 false, i32 0, i32 0, null, i32 384, i1 false, null, null, i32 0, metadata !83, i32 1471} ; [ DW_TAG_subprogram ]
!658 = metadata !{i32 786453, i32 0, metadata !"", i32 0, i32 0, i64 0, i64 0, i64 0, i32 0, null, metadata !659, i32 0, i32 0} ; [ DW_TAG_subroutine_type ]
!659 = metadata !{null, metadata !324, metadata !149}
!660 = metadata !{i32 786478, i32 0, metadata !308, metadata !"ap_int_base", metadata !"ap_int_base", metadata !"", metadata !67, i32 1472, metadata !661, i1 false, i1 false, i32 0, i32 0, null, i32 384, i1 false, null, null, i32 0, metadata !83, i32 1472} ; [ DW_TAG_subprogram ]
!661 = metadata !{i32 786453, i32 0, metadata !"", i32 0, i32 0, i64 0, i64 0, i64 0, i32 0, null, metadata !662, i32 0, i32 0} ; [ DW_TAG_subroutine_type ]
!662 = metadata !{null, metadata !324, metadata !154}
!663 = metadata !{i32 786478, i32 0, metadata !308, metadata !"ap_int_base", metadata !"ap_int_base", metadata !"", metadata !67, i32 1473, metadata !664, i1 false, i1 false, i32 0, i32 0, null, i32 384, i1 false, null, null, i32 0, metadata !83, i32 1473} ; [ DW_TAG_subprogram ]
!664 = metadata !{i32 786453, i32 0, metadata !"", i32 0, i32 0, i64 0, i64 0, i64 0, i32 0, null, metadata !665, i32 0, i32 0} ; [ DW_TAG_subroutine_type ]
!665 = metadata !{null, metadata !324, metadata !159}
!666 = metadata !{i32 786478, i32 0, metadata !308, metadata !"ap_int_base", metadata !"ap_int_base", metadata !"", metadata !67, i32 1474, metadata !667, i1 false, i1 false, i32 0, i32 0, null, i32 384, i1 false, null, null, i32 0, metadata !83, i32 1474} ; [ DW_TAG_subprogram ]
!667 = metadata !{i32 786453, i32 0, metadata !"", i32 0, i32 0, i64 0, i64 0, i64 0, i32 0, null, metadata !668, i32 0, i32 0} ; [ DW_TAG_subroutine_type ]
!668 = metadata !{null, metadata !324, metadata !163}
!669 = metadata !{i32 786478, i32 0, metadata !308, metadata !"ap_int_base", metadata !"ap_int_base", metadata !"", metadata !67, i32 1501, metadata !670, i1 false, i1 false, i32 0, i32 0, null, i32 256, i1 false, null, null, i32 0, metadata !83, i32 1501} ; [ DW_TAG_subprogram ]
!670 = metadata !{i32 786453, i32 0, metadata !"", i32 0, i32 0, i64 0, i64 0, i64 0, i32 0, null, metadata !671, i32 0, i32 0} ; [ DW_TAG_subroutine_type ]
!671 = metadata !{null, metadata !324, metadata !167}
!672 = metadata !{i32 786478, i32 0, metadata !308, metadata !"ap_int_base", metadata !"ap_int_base", metadata !"", metadata !67, i32 1508, metadata !673, i1 false, i1 false, i32 0, i32 0, null, i32 256, i1 false, null, null, i32 0, metadata !83, i32 1508} ; [ DW_TAG_subprogram ]
!673 = metadata !{i32 786453, i32 0, metadata !"", i32 0, i32 0, i64 0, i64 0, i64 0, i32 0, null, metadata !674, i32 0, i32 0} ; [ DW_TAG_subroutine_type ]
!674 = metadata !{null, metadata !324, metadata !167, metadata !113}
!675 = metadata !{i32 786478, i32 0, metadata !308, metadata !"read", metadata !"read", metadata !"_ZNV11ap_int_baseILi12ELb1ELb1EE4readEv", metadata !67, i32 1529, metadata !676, i1 false, i1 false, i32 0, i32 0, null, i32 256, i1 false, null, null, i32 0, metadata !83, i32 1529} ; [ DW_TAG_subprogram ]
!676 = metadata !{i32 786453, i32 0, metadata !"", i32 0, i32 0, i64 0, i64 0, i64 0, i32 0, null, metadata !677, i32 0, i32 0} ; [ DW_TAG_subroutine_type ]
!677 = metadata !{metadata !308, metadata !678}
!678 = metadata !{i32 786447, i32 0, metadata !"", i32 0, i32 0, i64 32, i64 32, i64 0, i32 64, metadata !679} ; [ DW_TAG_pointer_type ]
!679 = metadata !{i32 786485, null, metadata !"", null, i32 0, i64 0, i64 0, i64 0, i32 0, metadata !308} ; [ DW_TAG_volatile_type ]
!680 = metadata !{i32 786478, i32 0, metadata !308, metadata !"write", metadata !"write", metadata !"_ZNV11ap_int_baseILi12ELb1ELb1EE5writeERKS0_", metadata !67, i32 1535, metadata !681, i1 false, i1 false, i32 0, i32 0, null, i32 256, i1 false, null, null, i32 0, metadata !83, i32 1535} ; [ DW_TAG_subprogram ]
!681 = metadata !{i32 786453, i32 0, metadata !"", i32 0, i32 0, i64 0, i64 0, i64 0, i32 0, null, metadata !682, i32 0, i32 0} ; [ DW_TAG_subroutine_type ]
!682 = metadata !{null, metadata !678, metadata !683}
!683 = metadata !{i32 786448, null, null, null, i32 0, i64 0, i64 0, i64 0, i32 0, metadata !684} ; [ DW_TAG_reference_type ]
!684 = metadata !{i32 786470, null, metadata !"", null, i32 0, i64 0, i64 0, i64 0, i32 0, metadata !308} ; [ DW_TAG_const_type ]
!685 = metadata !{i32 786478, i32 0, metadata !308, metadata !"operator=<33, true>", metadata !"operator=<33, true>", metadata !"_ZNV11ap_int_baseILi12ELb1ELb1EEaSILi33ELb1EEEvRVKS_IXT_EXT0_EXleT_Li64EEE", metadata !67, i32 1543, metadata !686, i1 false, i1 false, i32 0, i32 0, null, i32 256, i1 false, null, metadata !350, i32 0, metadata !83, i32 1543} ; [ DW_TAG_subprogram ]
!686 = metadata !{i32 786453, i32 0, metadata !"", i32 0, i32 0, i64 0, i64 0, i64 0, i32 0, null, metadata !687, i32 0, i32 0} ; [ DW_TAG_subroutine_type ]
!687 = metadata !{null, metadata !678, metadata !355}
!688 = metadata !{i32 786478, i32 0, metadata !308, metadata !"operator=", metadata !"operator=", metadata !"_ZNV11ap_int_baseILi12ELb1ELb1EEaSERVKS0_", metadata !67, i32 1547, metadata !689, i1 false, i1 false, i32 0, i32 0, null, i32 256, i1 false, null, null, i32 0, metadata !83, i32 1547} ; [ DW_TAG_subprogram ]
!689 = metadata !{i32 786453, i32 0, metadata !"", i32 0, i32 0, i64 0, i64 0, i64 0, i32 0, null, metadata !690, i32 0, i32 0} ; [ DW_TAG_subroutine_type ]
!690 = metadata !{null, metadata !678, metadata !691}
!691 = metadata !{i32 786448, null, null, null, i32 0, i64 0, i64 0, i64 0, i32 0, metadata !692} ; [ DW_TAG_reference_type ]
!692 = metadata !{i32 786470, null, metadata !"", null, i32 0, i64 0, i64 0, i64 0, i32 0, metadata !679} ; [ DW_TAG_const_type ]
!693 = metadata !{i32 786478, i32 0, metadata !308, metadata !"operator=<33, true>", metadata !"operator=<33, true>", metadata !"_ZNV11ap_int_baseILi12ELb1ELb1EEaSILi33ELb1EEEvRKS_IXT_EXT0_EXleT_Li64EEE", metadata !67, i32 1552, metadata !694, i1 false, i1 false, i32 0, i32 0, null, i32 256, i1 false, null, metadata !350, i32 0, metadata !83, i32 1552} ; [ DW_TAG_subprogram ]
!694 = metadata !{i32 786453, i32 0, metadata !"", i32 0, i32 0, i64 0, i64 0, i64 0, i32 0, null, metadata !695, i32 0, i32 0} ; [ DW_TAG_subroutine_type ]
!695 = metadata !{null, metadata !678, metadata !328}
!696 = metadata !{i32 786478, i32 0, metadata !308, metadata !"operator=", metadata !"operator=", metadata !"_ZNV11ap_int_baseILi12ELb1ELb1EEaSERKS0_", metadata !67, i32 1556, metadata !681, i1 false, i1 false, i32 0, i32 0, null, i32 256, i1 false, null, null, i32 0, metadata !83, i32 1556} ; [ DW_TAG_subprogram ]
!697 = metadata !{i32 786478, i32 0, metadata !308, metadata !"operator=<33, true>", metadata !"operator=<33, true>", metadata !"_ZN11ap_int_baseILi12ELb1ELb1EEaSILi33ELb1EEERS0_RVKS_IXT_EXT0_EXleT_Li64EEE", metadata !67, i32 1568, metadata !698, i1 false, i1 false, i32 0, i32 0, null, i32 256, i1 false, null, metadata !350, i32 0, metadata !83, i32 1568} ; [ DW_TAG_subprogram ]
!698 = metadata !{i32 786453, i32 0, metadata !"", i32 0, i32 0, i64 0, i64 0, i64 0, i32 0, null, metadata !699, i32 0, i32 0} ; [ DW_TAG_subroutine_type ]
!699 = metadata !{metadata !700, metadata !324, metadata !355}
!700 = metadata !{i32 786448, null, null, null, i32 0, i64 0, i64 0, i64 0, i32 0, metadata !308} ; [ DW_TAG_reference_type ]
!701 = metadata !{i32 786478, i32 0, metadata !308, metadata !"operator=<33, true>", metadata !"operator=<33, true>", metadata !"_ZN11ap_int_baseILi12ELb1ELb1EEaSILi33ELb1EEERS0_RKS_IXT_EXT0_EXleT_Li64EEE", metadata !67, i32 1574, metadata !702, i1 false, i1 false, i32 0, i32 0, null, i32 256, i1 false, null, metadata !350, i32 0, metadata !83, i32 1574} ; [ DW_TAG_subprogram ]
!702 = metadata !{i32 786453, i32 0, metadata !"", i32 0, i32 0, i64 0, i64 0, i64 0, i32 0, null, metadata !703, i32 0, i32 0} ; [ DW_TAG_subroutine_type ]
!703 = metadata !{metadata !700, metadata !324, metadata !328}
!704 = metadata !{i32 786478, i32 0, metadata !308, metadata !"operator=", metadata !"operator=", metadata !"_ZN11ap_int_baseILi12ELb1ELb1EEaSERVKS0_", metadata !67, i32 1579, metadata !705, i1 false, i1 false, i32 0, i32 0, null, i32 256, i1 false, null, null, i32 0, metadata !83, i32 1579} ; [ DW_TAG_subprogram ]
!705 = metadata !{i32 786453, i32 0, metadata !"", i32 0, i32 0, i64 0, i64 0, i64 0, i32 0, null, metadata !706, i32 0, i32 0} ; [ DW_TAG_subroutine_type ]
!706 = metadata !{metadata !700, metadata !324, metadata !691}
!707 = metadata !{i32 786478, i32 0, metadata !308, metadata !"operator=", metadata !"operator=", metadata !"_ZN11ap_int_baseILi12ELb1ELb1EEaSERKS0_", metadata !67, i32 1584, metadata !708, i1 false, i1 false, i32 0, i32 0, null, i32 256, i1 false, null, null, i32 0, metadata !83, i32 1584} ; [ DW_TAG_subprogram ]
!708 = metadata !{i32 786453, i32 0, metadata !"", i32 0, i32 0, i64 0, i64 0, i64 0, i32 0, null, metadata !709, i32 0, i32 0} ; [ DW_TAG_subroutine_type ]
!709 = metadata !{metadata !700, metadata !324, metadata !683}
!710 = metadata !{i32 786478, i32 0, metadata !308, metadata !"operator=", metadata !"operator=", metadata !"_ZN11ap_int_baseILi12ELb1ELb1EEaSEPKc", metadata !67, i32 1588, metadata !711, i1 false, i1 false, i32 0, i32 0, null, i32 256, i1 false, null, null, i32 0, metadata !83, i32 1588} ; [ DW_TAG_subprogram ]
!711 = metadata !{i32 786453, i32 0, metadata !"", i32 0, i32 0, i64 0, i64 0, i64 0, i32 0, null, metadata !712, i32 0, i32 0} ; [ DW_TAG_subroutine_type ]
!712 = metadata !{metadata !700, metadata !324, metadata !167}
!713 = metadata !{i32 786478, i32 0, metadata !308, metadata !"set", metadata !"set", metadata !"_ZN11ap_int_baseILi12ELb1ELb1EE3setEPKca", metadata !67, i32 1596, metadata !714, i1 false, i1 false, i32 0, i32 0, null, i32 256, i1 false, null, null, i32 0, metadata !83, i32 1596} ; [ DW_TAG_subprogram ]
!714 = metadata !{i32 786453, i32 0, metadata !"", i32 0, i32 0, i64 0, i64 0, i64 0, i32 0, null, metadata !715, i32 0, i32 0} ; [ DW_TAG_subroutine_type ]
!715 = metadata !{metadata !700, metadata !324, metadata !167, metadata !113}
!716 = metadata !{i32 786478, i32 0, metadata !308, metadata !"operator=", metadata !"operator=", metadata !"_ZN11ap_int_baseILi12ELb1ELb1EEaSEa", metadata !67, i32 1610, metadata !717, i1 false, i1 false, i32 0, i32 0, null, i32 256, i1 false, null, null, i32 0, metadata !83, i32 1610} ; [ DW_TAG_subprogram ]
!717 = metadata !{i32 786453, i32 0, metadata !"", i32 0, i32 0, i64 0, i64 0, i64 0, i32 0, null, metadata !718, i32 0, i32 0} ; [ DW_TAG_subroutine_type ]
!718 = metadata !{metadata !700, metadata !324, metadata !113}
!719 = metadata !{i32 786478, i32 0, metadata !308, metadata !"operator=", metadata !"operator=", metadata !"_ZN11ap_int_baseILi12ELb1ELb1EEaSEh", metadata !67, i32 1611, metadata !720, i1 false, i1 false, i32 0, i32 0, null, i32 256, i1 false, null, null, i32 0, metadata !83, i32 1611} ; [ DW_TAG_subprogram ]
!720 = metadata !{i32 786453, i32 0, metadata !"", i32 0, i32 0, i64 0, i64 0, i64 0, i32 0, null, metadata !721, i32 0, i32 0} ; [ DW_TAG_subroutine_type ]
!721 = metadata !{metadata !700, metadata !324, metadata !117}
!722 = metadata !{i32 786478, i32 0, metadata !308, metadata !"operator=", metadata !"operator=", metadata !"_ZN11ap_int_baseILi12ELb1ELb1EEaSEs", metadata !67, i32 1612, metadata !723, i1 false, i1 false, i32 0, i32 0, null, i32 256, i1 false, null, null, i32 0, metadata !83, i32 1612} ; [ DW_TAG_subprogram ]
!723 = metadata !{i32 786453, i32 0, metadata !"", i32 0, i32 0, i64 0, i64 0, i64 0, i32 0, null, metadata !724, i32 0, i32 0} ; [ DW_TAG_subroutine_type ]
!724 = metadata !{metadata !700, metadata !324, metadata !121}
!725 = metadata !{i32 786478, i32 0, metadata !308, metadata !"operator=", metadata !"operator=", metadata !"_ZN11ap_int_baseILi12ELb1ELb1EEaSEt", metadata !67, i32 1613, metadata !726, i1 false, i1 false, i32 0, i32 0, null, i32 256, i1 false, null, null, i32 0, metadata !83, i32 1613} ; [ DW_TAG_subprogram ]
!726 = metadata !{i32 786453, i32 0, metadata !"", i32 0, i32 0, i64 0, i64 0, i64 0, i32 0, null, metadata !727, i32 0, i32 0} ; [ DW_TAG_subroutine_type ]
!727 = metadata !{metadata !700, metadata !324, metadata !125}
!728 = metadata !{i32 786478, i32 0, metadata !308, metadata !"operator=", metadata !"operator=", metadata !"_ZN11ap_int_baseILi12ELb1ELb1EEaSEi", metadata !67, i32 1614, metadata !729, i1 false, i1 false, i32 0, i32 0, null, i32 256, i1 false, null, null, i32 0, metadata !83, i32 1614} ; [ DW_TAG_subprogram ]
!729 = metadata !{i32 786453, i32 0, metadata !"", i32 0, i32 0, i64 0, i64 0, i64 0, i32 0, null, metadata !730, i32 0, i32 0} ; [ DW_TAG_subroutine_type ]
!730 = metadata !{metadata !700, metadata !324, metadata !87}
!731 = metadata !{i32 786478, i32 0, metadata !308, metadata !"operator=", metadata !"operator=", metadata !"_ZN11ap_int_baseILi12ELb1ELb1EEaSEj", metadata !67, i32 1615, metadata !732, i1 false, i1 false, i32 0, i32 0, null, i32 256, i1 false, null, null, i32 0, metadata !83, i32 1615} ; [ DW_TAG_subprogram ]
!732 = metadata !{i32 786453, i32 0, metadata !"", i32 0, i32 0, i64 0, i64 0, i64 0, i32 0, null, metadata !733, i32 0, i32 0} ; [ DW_TAG_subroutine_type ]
!733 = metadata !{metadata !700, metadata !324, metadata !132}
!734 = metadata !{i32 786478, i32 0, metadata !308, metadata !"operator=", metadata !"operator=", metadata !"_ZN11ap_int_baseILi12ELb1ELb1EEaSEx", metadata !67, i32 1616, metadata !735, i1 false, i1 false, i32 0, i32 0, null, i32 256, i1 false, null, null, i32 0, metadata !83, i32 1616} ; [ DW_TAG_subprogram ]
!735 = metadata !{i32 786453, i32 0, metadata !"", i32 0, i32 0, i64 0, i64 0, i64 0, i32 0, null, metadata !736, i32 0, i32 0} ; [ DW_TAG_subroutine_type ]
!736 = metadata !{metadata !700, metadata !324, metadata !144}
!737 = metadata !{i32 786478, i32 0, metadata !308, metadata !"operator=", metadata !"operator=", metadata !"_ZN11ap_int_baseILi12ELb1ELb1EEaSEy", metadata !67, i32 1617, metadata !738, i1 false, i1 false, i32 0, i32 0, null, i32 256, i1 false, null, null, i32 0, metadata !83, i32 1617} ; [ DW_TAG_subprogram ]
!738 = metadata !{i32 786453, i32 0, metadata !"", i32 0, i32 0, i64 0, i64 0, i64 0, i32 0, null, metadata !739, i32 0, i32 0} ; [ DW_TAG_subroutine_type ]
!739 = metadata !{metadata !700, metadata !324, metadata !149}
!740 = metadata !{i32 786478, i32 0, metadata !308, metadata !"operator short", metadata !"operator short", metadata !"_ZNK11ap_int_baseILi12ELb1ELb1EEcvsEv", metadata !67, i32 1655, metadata !741, i1 false, i1 false, i32 0, i32 0, null, i32 256, i1 false, null, null, i32 0, metadata !83, i32 1655} ; [ DW_TAG_subprogram ]
!741 = metadata !{i32 786453, i32 0, metadata !"", i32 0, i32 0, i64 0, i64 0, i64 0, i32 0, null, metadata !742, i32 0, i32 0} ; [ DW_TAG_subroutine_type ]
!742 = metadata !{metadata !743, metadata !744}
!743 = metadata !{i32 786454, metadata !308, metadata !"RetType", metadata !67, i32 1403, i64 0, i64 0, i64 0, i32 0, metadata !225} ; [ DW_TAG_typedef ]
!744 = metadata !{i32 786447, i32 0, metadata !"", i32 0, i32 0, i64 32, i64 32, i64 0, i32 64, metadata !684} ; [ DW_TAG_pointer_type ]
!745 = metadata !{i32 786478, i32 0, metadata !308, metadata !"to_bool", metadata !"to_bool", metadata !"_ZNK11ap_int_baseILi12ELb1ELb1EE7to_boolEv", metadata !67, i32 1661, metadata !746, i1 false, i1 false, i32 0, i32 0, null, i32 256, i1 false, null, null, i32 0, metadata !83, i32 1661} ; [ DW_TAG_subprogram ]
!746 = metadata !{i32 786453, i32 0, metadata !"", i32 0, i32 0, i64 0, i64 0, i64 0, i32 0, null, metadata !747, i32 0, i32 0} ; [ DW_TAG_subroutine_type ]
!747 = metadata !{metadata !89, metadata !744}
!748 = metadata !{i32 786478, i32 0, metadata !308, metadata !"to_uchar", metadata !"to_uchar", metadata !"_ZNK11ap_int_baseILi12ELb1ELb1EE8to_ucharEv", metadata !67, i32 1662, metadata !749, i1 false, i1 false, i32 0, i32 0, null, i32 256, i1 false, null, null, i32 0, metadata !83, i32 1662} ; [ DW_TAG_subprogram ]
!749 = metadata !{i32 786453, i32 0, metadata !"", i32 0, i32 0, i64 0, i64 0, i64 0, i32 0, null, metadata !750, i32 0, i32 0} ; [ DW_TAG_subroutine_type ]
!750 = metadata !{metadata !117, metadata !744}
!751 = metadata !{i32 786478, i32 0, metadata !308, metadata !"to_char", metadata !"to_char", metadata !"_ZNK11ap_int_baseILi12ELb1ELb1EE7to_charEv", metadata !67, i32 1663, metadata !752, i1 false, i1 false, i32 0, i32 0, null, i32 256, i1 false, null, null, i32 0, metadata !83, i32 1663} ; [ DW_TAG_subprogram ]
!752 = metadata !{i32 786453, i32 0, metadata !"", i32 0, i32 0, i64 0, i64 0, i64 0, i32 0, null, metadata !753, i32 0, i32 0} ; [ DW_TAG_subroutine_type ]
!753 = metadata !{metadata !113, metadata !744}
!754 = metadata !{i32 786478, i32 0, metadata !308, metadata !"to_ushort", metadata !"to_ushort", metadata !"_ZNK11ap_int_baseILi12ELb1ELb1EE9to_ushortEv", metadata !67, i32 1664, metadata !755, i1 false, i1 false, i32 0, i32 0, null, i32 256, i1 false, null, null, i32 0, metadata !83, i32 1664} ; [ DW_TAG_subprogram ]
!755 = metadata !{i32 786453, i32 0, metadata !"", i32 0, i32 0, i64 0, i64 0, i64 0, i32 0, null, metadata !756, i32 0, i32 0} ; [ DW_TAG_subroutine_type ]
!756 = metadata !{metadata !125, metadata !744}
!757 = metadata !{i32 786478, i32 0, metadata !308, metadata !"to_short", metadata !"to_short", metadata !"_ZNK11ap_int_baseILi12ELb1ELb1EE8to_shortEv", metadata !67, i32 1665, metadata !758, i1 false, i1 false, i32 0, i32 0, null, i32 256, i1 false, null, null, i32 0, metadata !83, i32 1665} ; [ DW_TAG_subprogram ]
!758 = metadata !{i32 786453, i32 0, metadata !"", i32 0, i32 0, i64 0, i64 0, i64 0, i32 0, null, metadata !759, i32 0, i32 0} ; [ DW_TAG_subroutine_type ]
!759 = metadata !{metadata !121, metadata !744}
!760 = metadata !{i32 786478, i32 0, metadata !308, metadata !"to_int", metadata !"to_int", metadata !"_ZNK11ap_int_baseILi12ELb1ELb1EE6to_intEv", metadata !67, i32 1666, metadata !761, i1 false, i1 false, i32 0, i32 0, null, i32 256, i1 false, null, null, i32 0, metadata !83, i32 1666} ; [ DW_TAG_subprogram ]
!761 = metadata !{i32 786453, i32 0, metadata !"", i32 0, i32 0, i64 0, i64 0, i64 0, i32 0, null, metadata !762, i32 0, i32 0} ; [ DW_TAG_subroutine_type ]
!762 = metadata !{metadata !87, metadata !744}
!763 = metadata !{i32 786478, i32 0, metadata !308, metadata !"to_uint", metadata !"to_uint", metadata !"_ZNK11ap_int_baseILi12ELb1ELb1EE7to_uintEv", metadata !67, i32 1667, metadata !764, i1 false, i1 false, i32 0, i32 0, null, i32 256, i1 false, null, null, i32 0, metadata !83, i32 1667} ; [ DW_TAG_subprogram ]
!764 = metadata !{i32 786453, i32 0, metadata !"", i32 0, i32 0, i64 0, i64 0, i64 0, i32 0, null, metadata !765, i32 0, i32 0} ; [ DW_TAG_subroutine_type ]
!765 = metadata !{metadata !132, metadata !744}
!766 = metadata !{i32 786478, i32 0, metadata !308, metadata !"to_long", metadata !"to_long", metadata !"_ZNK11ap_int_baseILi12ELb1ELb1EE7to_longEv", metadata !67, i32 1668, metadata !767, i1 false, i1 false, i32 0, i32 0, null, i32 256, i1 false, null, null, i32 0, metadata !83, i32 1668} ; [ DW_TAG_subprogram ]
!767 = metadata !{i32 786453, i32 0, metadata !"", i32 0, i32 0, i64 0, i64 0, i64 0, i32 0, null, metadata !768, i32 0, i32 0} ; [ DW_TAG_subroutine_type ]
!768 = metadata !{metadata !136, metadata !744}
!769 = metadata !{i32 786478, i32 0, metadata !308, metadata !"to_ulong", metadata !"to_ulong", metadata !"_ZNK11ap_int_baseILi12ELb1ELb1EE8to_ulongEv", metadata !67, i32 1669, metadata !770, i1 false, i1 false, i32 0, i32 0, null, i32 256, i1 false, null, null, i32 0, metadata !83, i32 1669} ; [ DW_TAG_subprogram ]
!770 = metadata !{i32 786453, i32 0, metadata !"", i32 0, i32 0, i64 0, i64 0, i64 0, i32 0, null, metadata !771, i32 0, i32 0} ; [ DW_TAG_subroutine_type ]
!771 = metadata !{metadata !140, metadata !744}
!772 = metadata !{i32 786478, i32 0, metadata !308, metadata !"to_int64", metadata !"to_int64", metadata !"_ZNK11ap_int_baseILi12ELb1ELb1EE8to_int64Ev", metadata !67, i32 1670, metadata !773, i1 false, i1 false, i32 0, i32 0, null, i32 256, i1 false, null, null, i32 0, metadata !83, i32 1670} ; [ DW_TAG_subprogram ]
!773 = metadata !{i32 786453, i32 0, metadata !"", i32 0, i32 0, i64 0, i64 0, i64 0, i32 0, null, metadata !774, i32 0, i32 0} ; [ DW_TAG_subroutine_type ]
!774 = metadata !{metadata !144, metadata !744}
!775 = metadata !{i32 786478, i32 0, metadata !308, metadata !"to_uint64", metadata !"to_uint64", metadata !"_ZNK11ap_int_baseILi12ELb1ELb1EE9to_uint64Ev", metadata !67, i32 1671, metadata !776, i1 false, i1 false, i32 0, i32 0, null, i32 256, i1 false, null, null, i32 0, metadata !83, i32 1671} ; [ DW_TAG_subprogram ]
!776 = metadata !{i32 786453, i32 0, metadata !"", i32 0, i32 0, i64 0, i64 0, i64 0, i32 0, null, metadata !777, i32 0, i32 0} ; [ DW_TAG_subroutine_type ]
!777 = metadata !{metadata !149, metadata !744}
!778 = metadata !{i32 786478, i32 0, metadata !308, metadata !"to_double", metadata !"to_double", metadata !"_ZNK11ap_int_baseILi12ELb1ELb1EE9to_doubleEv", metadata !67, i32 1672, metadata !779, i1 false, i1 false, i32 0, i32 0, null, i32 256, i1 false, null, null, i32 0, metadata !83, i32 1672} ; [ DW_TAG_subprogram ]
!779 = metadata !{i32 786453, i32 0, metadata !"", i32 0, i32 0, i64 0, i64 0, i64 0, i32 0, null, metadata !780, i32 0, i32 0} ; [ DW_TAG_subroutine_type ]
!780 = metadata !{metadata !163, metadata !744}
!781 = metadata !{i32 786478, i32 0, metadata !308, metadata !"length", metadata !"length", metadata !"_ZNK11ap_int_baseILi12ELb1ELb1EE6lengthEv", metadata !67, i32 1686, metadata !761, i1 false, i1 false, i32 0, i32 0, null, i32 256, i1 false, null, null, i32 0, metadata !83, i32 1686} ; [ DW_TAG_subprogram ]
!782 = metadata !{i32 786478, i32 0, metadata !308, metadata !"length", metadata !"length", metadata !"_ZNVK11ap_int_baseILi12ELb1ELb1EE6lengthEv", metadata !67, i32 1687, metadata !783, i1 false, i1 false, i32 0, i32 0, null, i32 256, i1 false, null, null, i32 0, metadata !83, i32 1687} ; [ DW_TAG_subprogram ]
!783 = metadata !{i32 786453, i32 0, metadata !"", i32 0, i32 0, i64 0, i64 0, i64 0, i32 0, null, metadata !784, i32 0, i32 0} ; [ DW_TAG_subroutine_type ]
!784 = metadata !{metadata !87, metadata !785}
!785 = metadata !{i32 786447, i32 0, metadata !"", i32 0, i32 0, i64 32, i64 32, i64 0, i32 64, metadata !692} ; [ DW_TAG_pointer_type ]
!786 = metadata !{i32 786478, i32 0, metadata !308, metadata !"reverse", metadata !"reverse", metadata !"_ZN11ap_int_baseILi12ELb1ELb1EE7reverseEv", metadata !67, i32 1692, metadata !787, i1 false, i1 false, i32 0, i32 0, null, i32 256, i1 false, null, null, i32 0, metadata !83, i32 1692} ; [ DW_TAG_subprogram ]
!787 = metadata !{i32 786453, i32 0, metadata !"", i32 0, i32 0, i64 0, i64 0, i64 0, i32 0, null, metadata !788, i32 0, i32 0} ; [ DW_TAG_subroutine_type ]
!788 = metadata !{metadata !700, metadata !324}
!789 = metadata !{i32 786478, i32 0, metadata !308, metadata !"iszero", metadata !"iszero", metadata !"_ZNK11ap_int_baseILi12ELb1ELb1EE6iszeroEv", metadata !67, i32 1698, metadata !746, i1 false, i1 false, i32 0, i32 0, null, i32 256, i1 false, null, null, i32 0, metadata !83, i32 1698} ; [ DW_TAG_subprogram ]
!790 = metadata !{i32 786478, i32 0, metadata !308, metadata !"is_zero", metadata !"is_zero", metadata !"_ZNK11ap_int_baseILi12ELb1ELb1EE7is_zeroEv", metadata !67, i32 1703, metadata !746, i1 false, i1 false, i32 0, i32 0, null, i32 256, i1 false, null, null, i32 0, metadata !83, i32 1703} ; [ DW_TAG_subprogram ]
!791 = metadata !{i32 786478, i32 0, metadata !308, metadata !"sign", metadata !"sign", metadata !"_ZNK11ap_int_baseILi12ELb1ELb1EE4signEv", metadata !67, i32 1708, metadata !746, i1 false, i1 false, i32 0, i32 0, null, i32 256, i1 false, null, null, i32 0, metadata !83, i32 1708} ; [ DW_TAG_subprogram ]
!792 = metadata !{i32 786478, i32 0, metadata !308, metadata !"clear", metadata !"clear", metadata !"_ZN11ap_int_baseILi12ELb1ELb1EE5clearEi", metadata !67, i32 1716, metadata !643, i1 false, i1 false, i32 0, i32 0, null, i32 256, i1 false, null, null, i32 0, metadata !83, i32 1716} ; [ DW_TAG_subprogram ]
!793 = metadata !{i32 786478, i32 0, metadata !308, metadata !"invert", metadata !"invert", metadata !"_ZN11ap_int_baseILi12ELb1ELb1EE6invertEi", metadata !67, i32 1722, metadata !643, i1 false, i1 false, i32 0, i32 0, null, i32 256, i1 false, null, null, i32 0, metadata !83, i32 1722} ; [ DW_TAG_subprogram ]
!794 = metadata !{i32 786478, i32 0, metadata !308, metadata !"test", metadata !"test", metadata !"_ZNK11ap_int_baseILi12ELb1ELb1EE4testEi", metadata !67, i32 1730, metadata !795, i1 false, i1 false, i32 0, i32 0, null, i32 256, i1 false, null, null, i32 0, metadata !83, i32 1730} ; [ DW_TAG_subprogram ]
!795 = metadata !{i32 786453, i32 0, metadata !"", i32 0, i32 0, i64 0, i64 0, i64 0, i32 0, null, metadata !796, i32 0, i32 0} ; [ DW_TAG_subroutine_type ]
!796 = metadata !{metadata !89, metadata !744, metadata !87}
!797 = metadata !{i32 786478, i32 0, metadata !308, metadata !"set", metadata !"set", metadata !"_ZN11ap_int_baseILi12ELb1ELb1EE3setEi", metadata !67, i32 1736, metadata !643, i1 false, i1 false, i32 0, i32 0, null, i32 256, i1 false, null, null, i32 0, metadata !83, i32 1736} ; [ DW_TAG_subprogram ]
!798 = metadata !{i32 786478, i32 0, metadata !308, metadata !"set", metadata !"set", metadata !"_ZN11ap_int_baseILi12ELb1ELb1EE3setEib", metadata !67, i32 1742, metadata !799, i1 false, i1 false, i32 0, i32 0, null, i32 256, i1 false, null, null, i32 0, metadata !83, i32 1742} ; [ DW_TAG_subprogram ]
!799 = metadata !{i32 786453, i32 0, metadata !"", i32 0, i32 0, i64 0, i64 0, i64 0, i32 0, null, metadata !800, i32 0, i32 0} ; [ DW_TAG_subroutine_type ]
!800 = metadata !{null, metadata !324, metadata !87, metadata !89}
!801 = metadata !{i32 786478, i32 0, metadata !308, metadata !"lrotate", metadata !"lrotate", metadata !"_ZN11ap_int_baseILi12ELb1ELb1EE7lrotateEi", metadata !67, i32 1749, metadata !643, i1 false, i1 false, i32 0, i32 0, null, i32 256, i1 false, null, null, i32 0, metadata !83, i32 1749} ; [ DW_TAG_subprogram ]
!802 = metadata !{i32 786478, i32 0, metadata !308, metadata !"rrotate", metadata !"rrotate", metadata !"_ZN11ap_int_baseILi12ELb1ELb1EE7rrotateEi", metadata !67, i32 1758, metadata !643, i1 false, i1 false, i32 0, i32 0, null, i32 256, i1 false, null, null, i32 0, metadata !83, i32 1758} ; [ DW_TAG_subprogram ]
!803 = metadata !{i32 786478, i32 0, metadata !308, metadata !"set_bit", metadata !"set_bit", metadata !"_ZN11ap_int_baseILi12ELb1ELb1EE7set_bitEib", metadata !67, i32 1766, metadata !799, i1 false, i1 false, i32 0, i32 0, null, i32 256, i1 false, null, null, i32 0, metadata !83, i32 1766} ; [ DW_TAG_subprogram ]
!804 = metadata !{i32 786478, i32 0, metadata !308, metadata !"get_bit", metadata !"get_bit", metadata !"_ZNK11ap_int_baseILi12ELb1ELb1EE7get_bitEi", metadata !67, i32 1771, metadata !795, i1 false, i1 false, i32 0, i32 0, null, i32 256, i1 false, null, null, i32 0, metadata !83, i32 1771} ; [ DW_TAG_subprogram ]
!805 = metadata !{i32 786478, i32 0, metadata !308, metadata !"b_not", metadata !"b_not", metadata !"_ZN11ap_int_baseILi12ELb1ELb1EE5b_notEv", metadata !67, i32 1776, metadata !322, i1 false, i1 false, i32 0, i32 0, null, i32 256, i1 false, null, null, i32 0, metadata !83, i32 1776} ; [ DW_TAG_subprogram ]
!806 = metadata !{i32 786478, i32 0, metadata !308, metadata !"countLeadingZeros", metadata !"countLeadingZeros", metadata !"_ZN11ap_int_baseILi12ELb1ELb1EE17countLeadingZerosEv", metadata !67, i32 1783, metadata !807, i1 false, i1 false, i32 0, i32 0, null, i32 256, i1 false, null, null, i32 0, metadata !83, i32 1783} ; [ DW_TAG_subprogram ]
!807 = metadata !{i32 786453, i32 0, metadata !"", i32 0, i32 0, i64 0, i64 0, i64 0, i32 0, null, metadata !808, i32 0, i32 0} ; [ DW_TAG_subroutine_type ]
!808 = metadata !{metadata !87, metadata !324}
!809 = metadata !{i32 786478, i32 0, metadata !308, metadata !"operator++", metadata !"operator++", metadata !"_ZN11ap_int_baseILi12ELb1ELb1EEppEv", metadata !67, i32 1840, metadata !787, i1 false, i1 false, i32 0, i32 0, null, i32 256, i1 false, null, null, i32 0, metadata !83, i32 1840} ; [ DW_TAG_subprogram ]
!810 = metadata !{i32 786478, i32 0, metadata !308, metadata !"operator--", metadata !"operator--", metadata !"_ZN11ap_int_baseILi12ELb1ELb1EEmmEv", metadata !67, i32 1844, metadata !787, i1 false, i1 false, i32 0, i32 0, null, i32 256, i1 false, null, null, i32 0, metadata !83, i32 1844} ; [ DW_TAG_subprogram ]
!811 = metadata !{i32 786478, i32 0, metadata !308, metadata !"operator++", metadata !"operator++", metadata !"_ZN11ap_int_baseILi12ELb1ELb1EEppEi", metadata !67, i32 1852, metadata !812, i1 false, i1 false, i32 0, i32 0, null, i32 256, i1 false, null, null, i32 0, metadata !83, i32 1852} ; [ DW_TAG_subprogram ]
!812 = metadata !{i32 786453, i32 0, metadata !"", i32 0, i32 0, i64 0, i64 0, i64 0, i32 0, null, metadata !813, i32 0, i32 0} ; [ DW_TAG_subroutine_type ]
!813 = metadata !{metadata !684, metadata !324, metadata !87}
!814 = metadata !{i32 786478, i32 0, metadata !308, metadata !"operator--", metadata !"operator--", metadata !"_ZN11ap_int_baseILi12ELb1ELb1EEmmEi", metadata !67, i32 1857, metadata !812, i1 false, i1 false, i32 0, i32 0, null, i32 256, i1 false, null, null, i32 0, metadata !83, i32 1857} ; [ DW_TAG_subprogram ]
!815 = metadata !{i32 786478, i32 0, metadata !308, metadata !"operator+", metadata !"operator+", metadata !"_ZNK11ap_int_baseILi12ELb1ELb1EEpsEv", metadata !67, i32 1866, metadata !816, i1 false, i1 false, i32 0, i32 0, null, i32 256, i1 false, null, null, i32 0, metadata !83, i32 1866} ; [ DW_TAG_subprogram ]
!816 = metadata !{i32 786453, i32 0, metadata !"", i32 0, i32 0, i64 0, i64 0, i64 0, i32 0, null, metadata !817, i32 0, i32 0} ; [ DW_TAG_subroutine_type ]
!817 = metadata !{metadata !308, metadata !744}
!818 = metadata !{i32 786478, i32 0, metadata !308, metadata !"operator!", metadata !"operator!", metadata !"_ZNK11ap_int_baseILi12ELb1ELb1EEntEv", metadata !67, i32 1872, metadata !746, i1 false, i1 false, i32 0, i32 0, null, i32 256, i1 false, null, null, i32 0, metadata !83, i32 1872} ; [ DW_TAG_subprogram ]
!819 = metadata !{i32 786478, i32 0, metadata !308, metadata !"operator-", metadata !"operator-", metadata !"_ZNK11ap_int_baseILi12ELb1ELb1EEngEv", metadata !67, i32 1877, metadata !820, i1 false, i1 false, i32 0, i32 0, null, i32 256, i1 false, null, null, i32 0, metadata !83, i32 1877} ; [ DW_TAG_subprogram ]
!820 = metadata !{i32 786453, i32 0, metadata !"", i32 0, i32 0, i64 0, i64 0, i64 0, i32 0, null, metadata !821, i32 0, i32 0} ; [ DW_TAG_subroutine_type ]
!821 = metadata !{metadata !822, metadata !744}
!822 = metadata !{i32 786434, null, metadata !"ap_int_base<13, true, true>", metadata !67, i32 651, i32 0, i32 0, i32 0, i32 4, null, null, i32 0} ; [ DW_TAG_class_type ]
!823 = metadata !{i32 786478, i32 0, metadata !308, metadata !"range", metadata !"range", metadata !"_ZN11ap_int_baseILi12ELb1ELb1EE5rangeEii", metadata !67, i32 2007, metadata !824, i1 false, i1 false, i32 0, i32 0, null, i32 256, i1 false, null, null, i32 0, metadata !83, i32 2007} ; [ DW_TAG_subprogram ]
!824 = metadata !{i32 786453, i32 0, metadata !"", i32 0, i32 0, i64 0, i64 0, i64 0, i32 0, null, metadata !825, i32 0, i32 0} ; [ DW_TAG_subroutine_type ]
!825 = metadata !{metadata !826, metadata !324, metadata !87, metadata !87}
!826 = metadata !{i32 786434, null, metadata !"ap_range_ref<12, true>", metadata !67, i32 924, i32 0, i32 0, i32 0, i32 4, null, null, i32 0} ; [ DW_TAG_class_type ]
!827 = metadata !{i32 786478, i32 0, metadata !308, metadata !"operator()", metadata !"operator()", metadata !"_ZN11ap_int_baseILi12ELb1ELb1EEclEii", metadata !67, i32 2013, metadata !824, i1 false, i1 false, i32 0, i32 0, null, i32 256, i1 false, null, null, i32 0, metadata !83, i32 2013} ; [ DW_TAG_subprogram ]
!828 = metadata !{i32 786478, i32 0, metadata !308, metadata !"range", metadata !"range", metadata !"_ZNK11ap_int_baseILi12ELb1ELb1EE5rangeEii", metadata !67, i32 2019, metadata !829, i1 false, i1 false, i32 0, i32 0, null, i32 256, i1 false, null, null, i32 0, metadata !83, i32 2019} ; [ DW_TAG_subprogram ]
!829 = metadata !{i32 786453, i32 0, metadata !"", i32 0, i32 0, i64 0, i64 0, i64 0, i32 0, null, metadata !830, i32 0, i32 0} ; [ DW_TAG_subroutine_type ]
!830 = metadata !{metadata !826, metadata !744, metadata !87, metadata !87}
!831 = metadata !{i32 786478, i32 0, metadata !308, metadata !"operator()", metadata !"operator()", metadata !"_ZNK11ap_int_baseILi12ELb1ELb1EEclEii", metadata !67, i32 2025, metadata !829, i1 false, i1 false, i32 0, i32 0, null, i32 256, i1 false, null, null, i32 0, metadata !83, i32 2025} ; [ DW_TAG_subprogram ]
!832 = metadata !{i32 786478, i32 0, metadata !308, metadata !"operator[]", metadata !"operator[]", metadata !"_ZN11ap_int_baseILi12ELb1ELb1EEixEi", metadata !67, i32 2044, metadata !833, i1 false, i1 false, i32 0, i32 0, null, i32 256, i1 false, null, null, i32 0, metadata !83, i32 2044} ; [ DW_TAG_subprogram ]
!833 = metadata !{i32 786453, i32 0, metadata !"", i32 0, i32 0, i64 0, i64 0, i64 0, i32 0, null, metadata !834, i32 0, i32 0} ; [ DW_TAG_subroutine_type ]
!834 = metadata !{metadata !835, metadata !324, metadata !87}
!835 = metadata !{i32 786434, null, metadata !"ap_bit_ref<12, true>", metadata !67, i32 1194, i32 0, i32 0, i32 0, i32 4, null, null, i32 0} ; [ DW_TAG_class_type ]
!836 = metadata !{i32 786478, i32 0, metadata !308, metadata !"operator[]", metadata !"operator[]", metadata !"_ZNK11ap_int_baseILi12ELb1ELb1EEixEi", metadata !67, i32 2058, metadata !795, i1 false, i1 false, i32 0, i32 0, null, i32 256, i1 false, null, null, i32 0, metadata !83, i32 2058} ; [ DW_TAG_subprogram ]
!837 = metadata !{i32 786478, i32 0, metadata !308, metadata !"bit", metadata !"bit", metadata !"_ZN11ap_int_baseILi12ELb1ELb1EE3bitEi", metadata !67, i32 2072, metadata !833, i1 false, i1 false, i32 0, i32 0, null, i32 256, i1 false, null, null, i32 0, metadata !83, i32 2072} ; [ DW_TAG_subprogram ]
!838 = metadata !{i32 786478, i32 0, metadata !308, metadata !"bit", metadata !"bit", metadata !"_ZNK11ap_int_baseILi12ELb1ELb1EE3bitEi", metadata !67, i32 2086, metadata !795, i1 false, i1 false, i32 0, i32 0, null, i32 256, i1 false, null, null, i32 0, metadata !83, i32 2086} ; [ DW_TAG_subprogram ]
!839 = metadata !{i32 786478, i32 0, metadata !308, metadata !"and_reduce", metadata !"and_reduce", metadata !"_ZN11ap_int_baseILi12ELb1ELb1EE10and_reduceEv", metadata !67, i32 2266, metadata !840, i1 false, i1 false, i32 0, i32 0, null, i32 256, i1 false, null, null, i32 0, metadata !83, i32 2266} ; [ DW_TAG_subprogram ]
!840 = metadata !{i32 786453, i32 0, metadata !"", i32 0, i32 0, i64 0, i64 0, i64 0, i32 0, null, metadata !841, i32 0, i32 0} ; [ DW_TAG_subroutine_type ]
!841 = metadata !{metadata !89, metadata !324}
!842 = metadata !{i32 786478, i32 0, metadata !308, metadata !"nand_reduce", metadata !"nand_reduce", metadata !"_ZN11ap_int_baseILi12ELb1ELb1EE11nand_reduceEv", metadata !67, i32 2269, metadata !840, i1 false, i1 false, i32 0, i32 0, null, i32 256, i1 false, null, null, i32 0, metadata !83, i32 2269} ; [ DW_TAG_subprogram ]
!843 = metadata !{i32 786478, i32 0, metadata !308, metadata !"or_reduce", metadata !"or_reduce", metadata !"_ZN11ap_int_baseILi12ELb1ELb1EE9or_reduceEv", metadata !67, i32 2272, metadata !840, i1 false, i1 false, i32 0, i32 0, null, i32 256, i1 false, null, null, i32 0, metadata !83, i32 2272} ; [ DW_TAG_subprogram ]
!844 = metadata !{i32 786478, i32 0, metadata !308, metadata !"nor_reduce", metadata !"nor_reduce", metadata !"_ZN11ap_int_baseILi12ELb1ELb1EE10nor_reduceEv", metadata !67, i32 2275, metadata !840, i1 false, i1 false, i32 0, i32 0, null, i32 256, i1 false, null, null, i32 0, metadata !83, i32 2275} ; [ DW_TAG_subprogram ]
!845 = metadata !{i32 786478, i32 0, metadata !308, metadata !"xor_reduce", metadata !"xor_reduce", metadata !"_ZN11ap_int_baseILi12ELb1ELb1EE10xor_reduceEv", metadata !67, i32 2278, metadata !840, i1 false, i1 false, i32 0, i32 0, null, i32 256, i1 false, null, null, i32 0, metadata !83, i32 2278} ; [ DW_TAG_subprogram ]
!846 = metadata !{i32 786478, i32 0, metadata !308, metadata !"xnor_reduce", metadata !"xnor_reduce", metadata !"_ZN11ap_int_baseILi12ELb1ELb1EE11xnor_reduceEv", metadata !67, i32 2281, metadata !840, i1 false, i1 false, i32 0, i32 0, null, i32 256, i1 false, null, null, i32 0, metadata !83, i32 2281} ; [ DW_TAG_subprogram ]
!847 = metadata !{i32 786478, i32 0, metadata !308, metadata !"and_reduce", metadata !"and_reduce", metadata !"_ZNK11ap_int_baseILi12ELb1ELb1EE10and_reduceEv", metadata !67, i32 2285, metadata !746, i1 false, i1 false, i32 0, i32 0, null, i32 256, i1 false, null, null, i32 0, metadata !83, i32 2285} ; [ DW_TAG_subprogram ]
!848 = metadata !{i32 786478, i32 0, metadata !308, metadata !"nand_reduce", metadata !"nand_reduce", metadata !"_ZNK11ap_int_baseILi12ELb1ELb1EE11nand_reduceEv", metadata !67, i32 2288, metadata !746, i1 false, i1 false, i32 0, i32 0, null, i32 256, i1 false, null, null, i32 0, metadata !83, i32 2288} ; [ DW_TAG_subprogram ]
!849 = metadata !{i32 786478, i32 0, metadata !308, metadata !"or_reduce", metadata !"or_reduce", metadata !"_ZNK11ap_int_baseILi12ELb1ELb1EE9or_reduceEv", metadata !67, i32 2291, metadata !746, i1 false, i1 false, i32 0, i32 0, null, i32 256, i1 false, null, null, i32 0, metadata !83, i32 2291} ; [ DW_TAG_subprogram ]
!850 = metadata !{i32 786478, i32 0, metadata !308, metadata !"nor_reduce", metadata !"nor_reduce", metadata !"_ZNK11ap_int_baseILi12ELb1ELb1EE10nor_reduceEv", metadata !67, i32 2294, metadata !746, i1 false, i1 false, i32 0, i32 0, null, i32 256, i1 false, null, null, i32 0, metadata !83, i32 2294} ; [ DW_TAG_subprogram ]
!851 = metadata !{i32 786478, i32 0, metadata !308, metadata !"xor_reduce", metadata !"xor_reduce", metadata !"_ZNK11ap_int_baseILi12ELb1ELb1EE10xor_reduceEv", metadata !67, i32 2297, metadata !746, i1 false, i1 false, i32 0, i32 0, null, i32 256, i1 false, null, null, i32 0, metadata !83, i32 2297} ; [ DW_TAG_subprogram ]
!852 = metadata !{i32 786478, i32 0, metadata !308, metadata !"xnor_reduce", metadata !"xnor_reduce", metadata !"_ZNK11ap_int_baseILi12ELb1ELb1EE11xnor_reduceEv", metadata !67, i32 2300, metadata !746, i1 false, i1 false, i32 0, i32 0, null, i32 256, i1 false, null, null, i32 0, metadata !83, i32 2300} ; [ DW_TAG_subprogram ]
!853 = metadata !{i32 786478, i32 0, metadata !308, metadata !"to_string", metadata !"to_string", metadata !"_ZNK11ap_int_baseILi12ELb1ELb1EE9to_stringEPci8BaseModeb", metadata !67, i32 2307, metadata !854, i1 false, i1 false, i32 0, i32 0, null, i32 256, i1 false, null, null, i32 0, metadata !83, i32 2307} ; [ DW_TAG_subprogram ]
!854 = metadata !{i32 786453, i32 0, metadata !"", i32 0, i32 0, i64 0, i64 0, i64 0, i32 0, null, metadata !855, i32 0, i32 0} ; [ DW_TAG_subroutine_type ]
!855 = metadata !{null, metadata !744, metadata !609, metadata !87, metadata !610, metadata !89}
!856 = metadata !{i32 786478, i32 0, metadata !308, metadata !"to_string", metadata !"to_string", metadata !"_ZNK11ap_int_baseILi12ELb1ELb1EE9to_stringE8BaseModeb", metadata !67, i32 2334, metadata !857, i1 false, i1 false, i32 0, i32 0, null, i32 256, i1 false, null, null, i32 0, metadata !83, i32 2334} ; [ DW_TAG_subprogram ]
!857 = metadata !{i32 786453, i32 0, metadata !"", i32 0, i32 0, i64 0, i64 0, i64 0, i32 0, null, metadata !858, i32 0, i32 0} ; [ DW_TAG_subroutine_type ]
!858 = metadata !{metadata !609, metadata !744, metadata !610, metadata !89}
!859 = metadata !{i32 786478, i32 0, metadata !308, metadata !"to_string", metadata !"to_string", metadata !"_ZNK11ap_int_baseILi12ELb1ELb1EE9to_stringEab", metadata !67, i32 2338, metadata !860, i1 false, i1 false, i32 0, i32 0, null, i32 256, i1 false, null, null, i32 0, metadata !83, i32 2338} ; [ DW_TAG_subprogram ]
!860 = metadata !{i32 786453, i32 0, metadata !"", i32 0, i32 0, i64 0, i64 0, i64 0, i32 0, null, metadata !861, i32 0, i32 0} ; [ DW_TAG_subroutine_type ]
!861 = metadata !{metadata !609, metadata !744, metadata !113, metadata !89}
!862 = metadata !{metadata !863, metadata !88, metadata !623}
!863 = metadata !{i32 786480, null, metadata !"_AP_W", metadata !87, i64 12, null, i32 0, i32 0} ; [ DW_TAG_template_value_parameter ]
!864 = metadata !{i32 786478, i32 0, metadata !71, metadata !"range", metadata !"range", metadata !"_ZN11ap_int_baseILi11ELb1ELb1EE5rangeEii", metadata !67, i32 2007, metadata !865, i1 false, i1 false, i32 0, i32 0, null, i32 256, i1 false, null, null, i32 0, metadata !83, i32 2007} ; [ DW_TAG_subprogram ]
!865 = metadata !{i32 786453, i32 0, metadata !"", i32 0, i32 0, i64 0, i64 0, i64 0, i32 0, null, metadata !866, i32 0, i32 0} ; [ DW_TAG_subroutine_type ]
!866 = metadata !{metadata !867, metadata !70, metadata !87, metadata !87}
!867 = metadata !{i32 786434, null, metadata !"ap_range_ref<11, true>", metadata !67, i32 924, i32 0, i32 0, i32 0, i32 4, null, null, i32 0} ; [ DW_TAG_class_type ]
!868 = metadata !{i32 786478, i32 0, metadata !71, metadata !"operator()", metadata !"operator()", metadata !"_ZN11ap_int_baseILi11ELb1ELb1EEclEii", metadata !67, i32 2013, metadata !865, i1 false, i1 false, i32 0, i32 0, null, i32 256, i1 false, null, null, i32 0, metadata !83, i32 2013} ; [ DW_TAG_subprogram ]
!869 = metadata !{i32 786478, i32 0, metadata !71, metadata !"range", metadata !"range", metadata !"_ZNK11ap_int_baseILi11ELb1ELb1EE5rangeEii", metadata !67, i32 2019, metadata !870, i1 false, i1 false, i32 0, i32 0, null, i32 256, i1 false, null, null, i32 0, metadata !83, i32 2019} ; [ DW_TAG_subprogram ]
!870 = metadata !{i32 786453, i32 0, metadata !"", i32 0, i32 0, i64 0, i64 0, i64 0, i32 0, null, metadata !871, i32 0, i32 0} ; [ DW_TAG_subroutine_type ]
!871 = metadata !{metadata !867, metadata !230, metadata !87, metadata !87}
!872 = metadata !{i32 786478, i32 0, metadata !71, metadata !"operator()", metadata !"operator()", metadata !"_ZNK11ap_int_baseILi11ELb1ELb1EEclEii", metadata !67, i32 2025, metadata !870, i1 false, i1 false, i32 0, i32 0, null, i32 256, i1 false, null, null, i32 0, metadata !83, i32 2025} ; [ DW_TAG_subprogram ]
!873 = metadata !{i32 786478, i32 0, metadata !71, metadata !"operator[]", metadata !"operator[]", metadata !"_ZN11ap_int_baseILi11ELb1ELb1EEixEi", metadata !67, i32 2044, metadata !874, i1 false, i1 false, i32 0, i32 0, null, i32 256, i1 false, null, null, i32 0, metadata !83, i32 2044} ; [ DW_TAG_subprogram ]
!874 = metadata !{i32 786453, i32 0, metadata !"", i32 0, i32 0, i64 0, i64 0, i64 0, i32 0, null, metadata !875, i32 0, i32 0} ; [ DW_TAG_subroutine_type ]
!875 = metadata !{metadata !876, metadata !70, metadata !87}
!876 = metadata !{i32 786434, null, metadata !"ap_bit_ref<11, true>", metadata !67, i32 1194, i32 0, i32 0, i32 0, i32 4, null, null, i32 0} ; [ DW_TAG_class_type ]
!877 = metadata !{i32 786478, i32 0, metadata !71, metadata !"operator[]", metadata !"operator[]", metadata !"_ZNK11ap_int_baseILi11ELb1ELb1EEixEi", metadata !67, i32 2058, metadata !281, i1 false, i1 false, i32 0, i32 0, null, i32 256, i1 false, null, null, i32 0, metadata !83, i32 2058} ; [ DW_TAG_subprogram ]
!878 = metadata !{i32 786478, i32 0, metadata !71, metadata !"bit", metadata !"bit", metadata !"_ZN11ap_int_baseILi11ELb1ELb1EE3bitEi", metadata !67, i32 2072, metadata !874, i1 false, i1 false, i32 0, i32 0, null, i32 256, i1 false, null, null, i32 0, metadata !83, i32 2072} ; [ DW_TAG_subprogram ]
!879 = metadata !{i32 786478, i32 0, metadata !71, metadata !"bit", metadata !"bit", metadata !"_ZNK11ap_int_baseILi11ELb1ELb1EE3bitEi", metadata !67, i32 2086, metadata !281, i1 false, i1 false, i32 0, i32 0, null, i32 256, i1 false, null, null, i32 0, metadata !83, i32 2086} ; [ DW_TAG_subprogram ]
!880 = metadata !{i32 786478, i32 0, metadata !71, metadata !"and_reduce", metadata !"and_reduce", metadata !"_ZN11ap_int_baseILi11ELb1ELb1EE10and_reduceEv", metadata !67, i32 2266, metadata !881, i1 false, i1 false, i32 0, i32 0, null, i32 256, i1 false, null, null, i32 0, metadata !83, i32 2266} ; [ DW_TAG_subprogram ]
!881 = metadata !{i32 786453, i32 0, metadata !"", i32 0, i32 0, i64 0, i64 0, i64 0, i32 0, null, metadata !882, i32 0, i32 0} ; [ DW_TAG_subroutine_type ]
!882 = metadata !{metadata !89, metadata !70}
!883 = metadata !{i32 786478, i32 0, metadata !71, metadata !"nand_reduce", metadata !"nand_reduce", metadata !"_ZN11ap_int_baseILi11ELb1ELb1EE11nand_reduceEv", metadata !67, i32 2269, metadata !881, i1 false, i1 false, i32 0, i32 0, null, i32 256, i1 false, null, null, i32 0, metadata !83, i32 2269} ; [ DW_TAG_subprogram ]
!884 = metadata !{i32 786478, i32 0, metadata !71, metadata !"or_reduce", metadata !"or_reduce", metadata !"_ZN11ap_int_baseILi11ELb1ELb1EE9or_reduceEv", metadata !67, i32 2272, metadata !881, i1 false, i1 false, i32 0, i32 0, null, i32 256, i1 false, null, null, i32 0, metadata !83, i32 2272} ; [ DW_TAG_subprogram ]
!885 = metadata !{i32 786478, i32 0, metadata !71, metadata !"nor_reduce", metadata !"nor_reduce", metadata !"_ZN11ap_int_baseILi11ELb1ELb1EE10nor_reduceEv", metadata !67, i32 2275, metadata !881, i1 false, i1 false, i32 0, i32 0, null, i32 256, i1 false, null, null, i32 0, metadata !83, i32 2275} ; [ DW_TAG_subprogram ]
!886 = metadata !{i32 786478, i32 0, metadata !71, metadata !"xor_reduce", metadata !"xor_reduce", metadata !"_ZN11ap_int_baseILi11ELb1ELb1EE10xor_reduceEv", metadata !67, i32 2278, metadata !881, i1 false, i1 false, i32 0, i32 0, null, i32 256, i1 false, null, null, i32 0, metadata !83, i32 2278} ; [ DW_TAG_subprogram ]
!887 = metadata !{i32 786478, i32 0, metadata !71, metadata !"xnor_reduce", metadata !"xnor_reduce", metadata !"_ZN11ap_int_baseILi11ELb1ELb1EE11xnor_reduceEv", metadata !67, i32 2281, metadata !881, i1 false, i1 false, i32 0, i32 0, null, i32 256, i1 false, null, null, i32 0, metadata !83, i32 2281} ; [ DW_TAG_subprogram ]
!888 = metadata !{i32 786478, i32 0, metadata !71, metadata !"and_reduce", metadata !"and_reduce", metadata !"_ZNK11ap_int_baseILi11ELb1ELb1EE10and_reduceEv", metadata !67, i32 2285, metadata !232, i1 false, i1 false, i32 0, i32 0, null, i32 256, i1 false, null, null, i32 0, metadata !83, i32 2285} ; [ DW_TAG_subprogram ]
!889 = metadata !{i32 786478, i32 0, metadata !71, metadata !"nand_reduce", metadata !"nand_reduce", metadata !"_ZNK11ap_int_baseILi11ELb1ELb1EE11nand_reduceEv", metadata !67, i32 2288, metadata !232, i1 false, i1 false, i32 0, i32 0, null, i32 256, i1 false, null, null, i32 0, metadata !83, i32 2288} ; [ DW_TAG_subprogram ]
!890 = metadata !{i32 786478, i32 0, metadata !71, metadata !"or_reduce", metadata !"or_reduce", metadata !"_ZNK11ap_int_baseILi11ELb1ELb1EE9or_reduceEv", metadata !67, i32 2291, metadata !232, i1 false, i1 false, i32 0, i32 0, null, i32 256, i1 false, null, null, i32 0, metadata !83, i32 2291} ; [ DW_TAG_subprogram ]
!891 = metadata !{i32 786478, i32 0, metadata !71, metadata !"nor_reduce", metadata !"nor_reduce", metadata !"_ZNK11ap_int_baseILi11ELb1ELb1EE10nor_reduceEv", metadata !67, i32 2294, metadata !232, i1 false, i1 false, i32 0, i32 0, null, i32 256, i1 false, null, null, i32 0, metadata !83, i32 2294} ; [ DW_TAG_subprogram ]
!892 = metadata !{i32 786478, i32 0, metadata !71, metadata !"xor_reduce", metadata !"xor_reduce", metadata !"_ZNK11ap_int_baseILi11ELb1ELb1EE10xor_reduceEv", metadata !67, i32 2297, metadata !232, i1 false, i1 false, i32 0, i32 0, null, i32 256, i1 false, null, null, i32 0, metadata !83, i32 2297} ; [ DW_TAG_subprogram ]
!893 = metadata !{i32 786478, i32 0, metadata !71, metadata !"xnor_reduce", metadata !"xnor_reduce", metadata !"_ZNK11ap_int_baseILi11ELb1ELb1EE11xnor_reduceEv", metadata !67, i32 2300, metadata !232, i1 false, i1 false, i32 0, i32 0, null, i32 256, i1 false, null, null, i32 0, metadata !83, i32 2300} ; [ DW_TAG_subprogram ]
!894 = metadata !{i32 786478, i32 0, metadata !71, metadata !"to_string", metadata !"to_string", metadata !"_ZNK11ap_int_baseILi11ELb1ELb1EE9to_stringEPci8BaseModeb", metadata !67, i32 2307, metadata !895, i1 false, i1 false, i32 0, i32 0, null, i32 256, i1 false, null, null, i32 0, metadata !83, i32 2307} ; [ DW_TAG_subprogram ]
!895 = metadata !{i32 786453, i32 0, metadata !"", i32 0, i32 0, i64 0, i64 0, i64 0, i32 0, null, metadata !896, i32 0, i32 0} ; [ DW_TAG_subroutine_type ]
!896 = metadata !{null, metadata !230, metadata !609, metadata !87, metadata !610, metadata !89}
!897 = metadata !{i32 786478, i32 0, metadata !71, metadata !"to_string", metadata !"to_string", metadata !"_ZNK11ap_int_baseILi11ELb1ELb1EE9to_stringE8BaseModeb", metadata !67, i32 2334, metadata !898, i1 false, i1 false, i32 0, i32 0, null, i32 256, i1 false, null, null, i32 0, metadata !83, i32 2334} ; [ DW_TAG_subprogram ]
!898 = metadata !{i32 786453, i32 0, metadata !"", i32 0, i32 0, i64 0, i64 0, i64 0, i32 0, null, metadata !899, i32 0, i32 0} ; [ DW_TAG_subroutine_type ]
!899 = metadata !{metadata !609, metadata !230, metadata !610, metadata !89}
!900 = metadata !{i32 786478, i32 0, metadata !71, metadata !"to_string", metadata !"to_string", metadata !"_ZNK11ap_int_baseILi11ELb1ELb1EE9to_stringEab", metadata !67, i32 2338, metadata !901, i1 false, i1 false, i32 0, i32 0, null, i32 256, i1 false, null, null, i32 0, metadata !83, i32 2338} ; [ DW_TAG_subprogram ]
!901 = metadata !{i32 786453, i32 0, metadata !"", i32 0, i32 0, i64 0, i64 0, i64 0, i32 0, null, metadata !902, i32 0, i32 0} ; [ DW_TAG_subroutine_type ]
!902 = metadata !{metadata !609, metadata !230, metadata !113, metadata !89}
!903 = metadata !{i32 786478, i32 0, metadata !71, metadata !"~ap_int_base", metadata !"~ap_int_base", metadata !"", metadata !67, i32 1398, metadata !91, i1 false, i1 false, i32 0, i32 0, null, i32 320, i1 false, null, null, i32 0, metadata !83, i32 1398} ; [ DW_TAG_subprogram ]
!904 = metadata !{metadata !905, metadata !88, metadata !623}
!905 = metadata !{i32 786480, null, metadata !"_AP_W", metadata !87, i64 11, null, i32 0, i32 0} ; [ DW_TAG_template_value_parameter ]
!906 = metadata !{i32 786448, null, null, null, i32 0, i64 0, i64 0, i64 0, i32 0, metadata !907} ; [ DW_TAG_reference_type ]
!907 = metadata !{i32 786470, null, metadata !"", null, i32 0, i64 0, i64 0, i64 0, i32 0, metadata !908} ; [ DW_TAG_const_type ]
!908 = metadata !{i32 786434, null, metadata !"ap_int_base<3, true, true>", metadata !67, i32 1398, i64 8, i64 8, i32 0, i32 0, null, metadata !909, i32 0, null, metadata !1150} ; [ DW_TAG_class_type ]
!909 = metadata !{metadata !910, metadata !921, metadata !925, metadata !928, metadata !931, metadata !934, metadata !937, metadata !940, metadata !943, metadata !946, metadata !949, metadata !952, metadata !955, metadata !958, metadata !961, metadata !964, metadata !967, metadata !970, metadata !973, metadata !978, metadata !981, metadata !986, metadata !987, metadata !991, metadata !994, metadata !997, metadata !1000, metadata !1003, metadata !1006, metadata !1009, metadata !1012, metadata !1015, metadata !1018, metadata !1021, metadata !1024, metadata !1033, metadata !1036, metadata !1039, metadata !1042, metadata !1045, metadata !1048, metadata !1051, metadata !1054, metadata !1057, metadata !1060, metadata !1063, metadata !1066, metadata !1069, metadata !1070, metadata !1074, metadata !1077, metadata !1078, metadata !1079, metadata !1080, metadata !1081, metadata !1082, metadata !1085, metadata !1086, metadata !1089, metadata !1090, metadata !1091, metadata !1092, metadata !1093, metadata !1094, metadata !1097, metadata !1098, metadata !1099, metadata !1102, metadata !1103, metadata !1106, metadata !1107, metadata !1111, metadata !1115, metadata !1116, metadata !1119, metadata !1120, metadata !1124, metadata !1125, metadata !1126, metadata !1127, metadata !1130, metadata !1131, metadata !1132, metadata !1133, metadata !1134, metadata !1135, metadata !1136, metadata !1137, metadata !1138, metadata !1139, metadata !1140, metadata !1141, metadata !1144, metadata !1147}
!910 = metadata !{i32 786460, metadata !908, null, metadata !67, i32 0, i64 0, i64 0, i64 0, i32 0, metadata !911} ; [ DW_TAG_inheritance ]
!911 = metadata !{i32 786434, null, metadata !"ssdm_int<3 + 1024 * 0, true>", metadata !75, i32 5, i64 8, i64 8, i32 0, i32 0, null, metadata !912, i32 0, null, metadata !919} ; [ DW_TAG_class_type ]
!912 = metadata !{metadata !913, metadata !915}
!913 = metadata !{i32 786445, metadata !911, metadata !"V", metadata !75, i32 5, i64 3, i64 4, i64 0, i32 0, metadata !914} ; [ DW_TAG_member ]
!914 = metadata !{i32 786468, null, metadata !"int3", null, i32 0, i64 3, i64 4, i64 0, i32 0, i32 5} ; [ DW_TAG_base_type ]
!915 = metadata !{i32 786478, i32 0, metadata !911, metadata !"ssdm_int", metadata !"ssdm_int", metadata !"", metadata !75, i32 5, metadata !916, i1 false, i1 false, i32 0, i32 0, null, i32 256, i1 false, null, null, i32 0, metadata !83, i32 5} ; [ DW_TAG_subprogram ]
!916 = metadata !{i32 786453, i32 0, metadata !"", i32 0, i32 0, i64 0, i64 0, i64 0, i32 0, null, metadata !917, i32 0, i32 0} ; [ DW_TAG_subroutine_type ]
!917 = metadata !{null, metadata !918}
!918 = metadata !{i32 786447, i32 0, metadata !"", i32 0, i32 0, i64 32, i64 32, i64 0, i32 64, metadata !911} ; [ DW_TAG_pointer_type ]
!919 = metadata !{metadata !920, metadata !88}
!920 = metadata !{i32 786480, null, metadata !"_AP_N", metadata !87, i64 3, null, i32 0, i32 0} ; [ DW_TAG_template_value_parameter ]
!921 = metadata !{i32 786478, i32 0, metadata !908, metadata !"ap_int_base", metadata !"ap_int_base", metadata !"", metadata !67, i32 1439, metadata !922, i1 false, i1 false, i32 0, i32 0, null, i32 256, i1 false, null, null, i32 0, metadata !83, i32 1439} ; [ DW_TAG_subprogram ]
!922 = metadata !{i32 786453, i32 0, metadata !"", i32 0, i32 0, i64 0, i64 0, i64 0, i32 0, null, metadata !923, i32 0, i32 0} ; [ DW_TAG_subroutine_type ]
!923 = metadata !{null, metadata !924}
!924 = metadata !{i32 786447, i32 0, metadata !"", i32 0, i32 0, i64 32, i64 32, i64 0, i32 64, metadata !908} ; [ DW_TAG_pointer_type ]
!925 = metadata !{i32 786478, i32 0, metadata !908, metadata !"ap_int_base", metadata !"ap_int_base", metadata !"", metadata !67, i32 1461, metadata !926, i1 false, i1 false, i32 0, i32 0, null, i32 384, i1 false, null, null, i32 0, metadata !83, i32 1461} ; [ DW_TAG_subprogram ]
!926 = metadata !{i32 786453, i32 0, metadata !"", i32 0, i32 0, i64 0, i64 0, i64 0, i32 0, null, metadata !927, i32 0, i32 0} ; [ DW_TAG_subroutine_type ]
!927 = metadata !{null, metadata !924, metadata !89}
!928 = metadata !{i32 786478, i32 0, metadata !908, metadata !"ap_int_base", metadata !"ap_int_base", metadata !"", metadata !67, i32 1462, metadata !929, i1 false, i1 false, i32 0, i32 0, null, i32 384, i1 false, null, null, i32 0, metadata !83, i32 1462} ; [ DW_TAG_subprogram ]
!929 = metadata !{i32 786453, i32 0, metadata !"", i32 0, i32 0, i64 0, i64 0, i64 0, i32 0, null, metadata !930, i32 0, i32 0} ; [ DW_TAG_subroutine_type ]
!930 = metadata !{null, metadata !924, metadata !113}
!931 = metadata !{i32 786478, i32 0, metadata !908, metadata !"ap_int_base", metadata !"ap_int_base", metadata !"", metadata !67, i32 1463, metadata !932, i1 false, i1 false, i32 0, i32 0, null, i32 384, i1 false, null, null, i32 0, metadata !83, i32 1463} ; [ DW_TAG_subprogram ]
!932 = metadata !{i32 786453, i32 0, metadata !"", i32 0, i32 0, i64 0, i64 0, i64 0, i32 0, null, metadata !933, i32 0, i32 0} ; [ DW_TAG_subroutine_type ]
!933 = metadata !{null, metadata !924, metadata !117}
!934 = metadata !{i32 786478, i32 0, metadata !908, metadata !"ap_int_base", metadata !"ap_int_base", metadata !"", metadata !67, i32 1464, metadata !935, i1 false, i1 false, i32 0, i32 0, null, i32 384, i1 false, null, null, i32 0, metadata !83, i32 1464} ; [ DW_TAG_subprogram ]
!935 = metadata !{i32 786453, i32 0, metadata !"", i32 0, i32 0, i64 0, i64 0, i64 0, i32 0, null, metadata !936, i32 0, i32 0} ; [ DW_TAG_subroutine_type ]
!936 = metadata !{null, metadata !924, metadata !121}
!937 = metadata !{i32 786478, i32 0, metadata !908, metadata !"ap_int_base", metadata !"ap_int_base", metadata !"", metadata !67, i32 1465, metadata !938, i1 false, i1 false, i32 0, i32 0, null, i32 384, i1 false, null, null, i32 0, metadata !83, i32 1465} ; [ DW_TAG_subprogram ]
!938 = metadata !{i32 786453, i32 0, metadata !"", i32 0, i32 0, i64 0, i64 0, i64 0, i32 0, null, metadata !939, i32 0, i32 0} ; [ DW_TAG_subroutine_type ]
!939 = metadata !{null, metadata !924, metadata !125}
!940 = metadata !{i32 786478, i32 0, metadata !908, metadata !"ap_int_base", metadata !"ap_int_base", metadata !"", metadata !67, i32 1466, metadata !941, i1 false, i1 false, i32 0, i32 0, null, i32 384, i1 false, null, null, i32 0, metadata !83, i32 1466} ; [ DW_TAG_subprogram ]
!941 = metadata !{i32 786453, i32 0, metadata !"", i32 0, i32 0, i64 0, i64 0, i64 0, i32 0, null, metadata !942, i32 0, i32 0} ; [ DW_TAG_subroutine_type ]
!942 = metadata !{null, metadata !924, metadata !87}
!943 = metadata !{i32 786478, i32 0, metadata !908, metadata !"ap_int_base", metadata !"ap_int_base", metadata !"", metadata !67, i32 1467, metadata !944, i1 false, i1 false, i32 0, i32 0, null, i32 384, i1 false, null, null, i32 0, metadata !83, i32 1467} ; [ DW_TAG_subprogram ]
!944 = metadata !{i32 786453, i32 0, metadata !"", i32 0, i32 0, i64 0, i64 0, i64 0, i32 0, null, metadata !945, i32 0, i32 0} ; [ DW_TAG_subroutine_type ]
!945 = metadata !{null, metadata !924, metadata !132}
!946 = metadata !{i32 786478, i32 0, metadata !908, metadata !"ap_int_base", metadata !"ap_int_base", metadata !"", metadata !67, i32 1468, metadata !947, i1 false, i1 false, i32 0, i32 0, null, i32 384, i1 false, null, null, i32 0, metadata !83, i32 1468} ; [ DW_TAG_subprogram ]
!947 = metadata !{i32 786453, i32 0, metadata !"", i32 0, i32 0, i64 0, i64 0, i64 0, i32 0, null, metadata !948, i32 0, i32 0} ; [ DW_TAG_subroutine_type ]
!948 = metadata !{null, metadata !924, metadata !136}
!949 = metadata !{i32 786478, i32 0, metadata !908, metadata !"ap_int_base", metadata !"ap_int_base", metadata !"", metadata !67, i32 1469, metadata !950, i1 false, i1 false, i32 0, i32 0, null, i32 384, i1 false, null, null, i32 0, metadata !83, i32 1469} ; [ DW_TAG_subprogram ]
!950 = metadata !{i32 786453, i32 0, metadata !"", i32 0, i32 0, i64 0, i64 0, i64 0, i32 0, null, metadata !951, i32 0, i32 0} ; [ DW_TAG_subroutine_type ]
!951 = metadata !{null, metadata !924, metadata !140}
!952 = metadata !{i32 786478, i32 0, metadata !908, metadata !"ap_int_base", metadata !"ap_int_base", metadata !"", metadata !67, i32 1470, metadata !953, i1 false, i1 false, i32 0, i32 0, null, i32 384, i1 false, null, null, i32 0, metadata !83, i32 1470} ; [ DW_TAG_subprogram ]
!953 = metadata !{i32 786453, i32 0, metadata !"", i32 0, i32 0, i64 0, i64 0, i64 0, i32 0, null, metadata !954, i32 0, i32 0} ; [ DW_TAG_subroutine_type ]
!954 = metadata !{null, metadata !924, metadata !144}
!955 = metadata !{i32 786478, i32 0, metadata !908, metadata !"ap_int_base", metadata !"ap_int_base", metadata !"", metadata !67, i32 1471, metadata !956, i1 false, i1 false, i32 0, i32 0, null, i32 384, i1 false, null, null, i32 0, metadata !83, i32 1471} ; [ DW_TAG_subprogram ]
!956 = metadata !{i32 786453, i32 0, metadata !"", i32 0, i32 0, i64 0, i64 0, i64 0, i32 0, null, metadata !957, i32 0, i32 0} ; [ DW_TAG_subroutine_type ]
!957 = metadata !{null, metadata !924, metadata !149}
!958 = metadata !{i32 786478, i32 0, metadata !908, metadata !"ap_int_base", metadata !"ap_int_base", metadata !"", metadata !67, i32 1472, metadata !959, i1 false, i1 false, i32 0, i32 0, null, i32 384, i1 false, null, null, i32 0, metadata !83, i32 1472} ; [ DW_TAG_subprogram ]
!959 = metadata !{i32 786453, i32 0, metadata !"", i32 0, i32 0, i64 0, i64 0, i64 0, i32 0, null, metadata !960, i32 0, i32 0} ; [ DW_TAG_subroutine_type ]
!960 = metadata !{null, metadata !924, metadata !154}
!961 = metadata !{i32 786478, i32 0, metadata !908, metadata !"ap_int_base", metadata !"ap_int_base", metadata !"", metadata !67, i32 1473, metadata !962, i1 false, i1 false, i32 0, i32 0, null, i32 384, i1 false, null, null, i32 0, metadata !83, i32 1473} ; [ DW_TAG_subprogram ]
!962 = metadata !{i32 786453, i32 0, metadata !"", i32 0, i32 0, i64 0, i64 0, i64 0, i32 0, null, metadata !963, i32 0, i32 0} ; [ DW_TAG_subroutine_type ]
!963 = metadata !{null, metadata !924, metadata !159}
!964 = metadata !{i32 786478, i32 0, metadata !908, metadata !"ap_int_base", metadata !"ap_int_base", metadata !"", metadata !67, i32 1474, metadata !965, i1 false, i1 false, i32 0, i32 0, null, i32 384, i1 false, null, null, i32 0, metadata !83, i32 1474} ; [ DW_TAG_subprogram ]
!965 = metadata !{i32 786453, i32 0, metadata !"", i32 0, i32 0, i64 0, i64 0, i64 0, i32 0, null, metadata !966, i32 0, i32 0} ; [ DW_TAG_subroutine_type ]
!966 = metadata !{null, metadata !924, metadata !163}
!967 = metadata !{i32 786478, i32 0, metadata !908, metadata !"ap_int_base", metadata !"ap_int_base", metadata !"", metadata !67, i32 1501, metadata !968, i1 false, i1 false, i32 0, i32 0, null, i32 256, i1 false, null, null, i32 0, metadata !83, i32 1501} ; [ DW_TAG_subprogram ]
!968 = metadata !{i32 786453, i32 0, metadata !"", i32 0, i32 0, i64 0, i64 0, i64 0, i32 0, null, metadata !969, i32 0, i32 0} ; [ DW_TAG_subroutine_type ]
!969 = metadata !{null, metadata !924, metadata !167}
!970 = metadata !{i32 786478, i32 0, metadata !908, metadata !"ap_int_base", metadata !"ap_int_base", metadata !"", metadata !67, i32 1508, metadata !971, i1 false, i1 false, i32 0, i32 0, null, i32 256, i1 false, null, null, i32 0, metadata !83, i32 1508} ; [ DW_TAG_subprogram ]
!971 = metadata !{i32 786453, i32 0, metadata !"", i32 0, i32 0, i64 0, i64 0, i64 0, i32 0, null, metadata !972, i32 0, i32 0} ; [ DW_TAG_subroutine_type ]
!972 = metadata !{null, metadata !924, metadata !167, metadata !113}
!973 = metadata !{i32 786478, i32 0, metadata !908, metadata !"read", metadata !"read", metadata !"_ZNV11ap_int_baseILi3ELb1ELb1EE4readEv", metadata !67, i32 1529, metadata !974, i1 false, i1 false, i32 0, i32 0, null, i32 256, i1 false, null, null, i32 0, metadata !83, i32 1529} ; [ DW_TAG_subprogram ]
!974 = metadata !{i32 786453, i32 0, metadata !"", i32 0, i32 0, i64 0, i64 0, i64 0, i32 0, null, metadata !975, i32 0, i32 0} ; [ DW_TAG_subroutine_type ]
!975 = metadata !{metadata !908, metadata !976}
!976 = metadata !{i32 786447, i32 0, metadata !"", i32 0, i32 0, i64 32, i64 32, i64 0, i32 64, metadata !977} ; [ DW_TAG_pointer_type ]
!977 = metadata !{i32 786485, null, metadata !"", null, i32 0, i64 0, i64 0, i64 0, i32 0, metadata !908} ; [ DW_TAG_volatile_type ]
!978 = metadata !{i32 786478, i32 0, metadata !908, metadata !"write", metadata !"write", metadata !"_ZNV11ap_int_baseILi3ELb1ELb1EE5writeERKS0_", metadata !67, i32 1535, metadata !979, i1 false, i1 false, i32 0, i32 0, null, i32 256, i1 false, null, null, i32 0, metadata !83, i32 1535} ; [ DW_TAG_subprogram ]
!979 = metadata !{i32 786453, i32 0, metadata !"", i32 0, i32 0, i64 0, i64 0, i64 0, i32 0, null, metadata !980, i32 0, i32 0} ; [ DW_TAG_subroutine_type ]
!980 = metadata !{null, metadata !976, metadata !906}
!981 = metadata !{i32 786478, i32 0, metadata !908, metadata !"operator=", metadata !"operator=", metadata !"_ZNV11ap_int_baseILi3ELb1ELb1EEaSERVKS0_", metadata !67, i32 1547, metadata !982, i1 false, i1 false, i32 0, i32 0, null, i32 256, i1 false, null, null, i32 0, metadata !83, i32 1547} ; [ DW_TAG_subprogram ]
!982 = metadata !{i32 786453, i32 0, metadata !"", i32 0, i32 0, i64 0, i64 0, i64 0, i32 0, null, metadata !983, i32 0, i32 0} ; [ DW_TAG_subroutine_type ]
!983 = metadata !{null, metadata !976, metadata !984}
!984 = metadata !{i32 786448, null, null, null, i32 0, i64 0, i64 0, i64 0, i32 0, metadata !985} ; [ DW_TAG_reference_type ]
!985 = metadata !{i32 786470, null, metadata !"", null, i32 0, i64 0, i64 0, i64 0, i32 0, metadata !977} ; [ DW_TAG_const_type ]
!986 = metadata !{i32 786478, i32 0, metadata !908, metadata !"operator=", metadata !"operator=", metadata !"_ZNV11ap_int_baseILi3ELb1ELb1EEaSERKS0_", metadata !67, i32 1556, metadata !979, i1 false, i1 false, i32 0, i32 0, null, i32 256, i1 false, null, null, i32 0, metadata !83, i32 1556} ; [ DW_TAG_subprogram ]
!987 = metadata !{i32 786478, i32 0, metadata !908, metadata !"operator=", metadata !"operator=", metadata !"_ZN11ap_int_baseILi3ELb1ELb1EEaSERVKS0_", metadata !67, i32 1579, metadata !988, i1 false, i1 false, i32 0, i32 0, null, i32 256, i1 false, null, null, i32 0, metadata !83, i32 1579} ; [ DW_TAG_subprogram ]
!988 = metadata !{i32 786453, i32 0, metadata !"", i32 0, i32 0, i64 0, i64 0, i64 0, i32 0, null, metadata !989, i32 0, i32 0} ; [ DW_TAG_subroutine_type ]
!989 = metadata !{metadata !990, metadata !924, metadata !984}
!990 = metadata !{i32 786448, null, null, null, i32 0, i64 0, i64 0, i64 0, i32 0, metadata !908} ; [ DW_TAG_reference_type ]
!991 = metadata !{i32 786478, i32 0, metadata !908, metadata !"operator=", metadata !"operator=", metadata !"_ZN11ap_int_baseILi3ELb1ELb1EEaSERKS0_", metadata !67, i32 1584, metadata !992, i1 false, i1 false, i32 0, i32 0, null, i32 256, i1 false, null, null, i32 0, metadata !83, i32 1584} ; [ DW_TAG_subprogram ]
!992 = metadata !{i32 786453, i32 0, metadata !"", i32 0, i32 0, i64 0, i64 0, i64 0, i32 0, null, metadata !993, i32 0, i32 0} ; [ DW_TAG_subroutine_type ]
!993 = metadata !{metadata !990, metadata !924, metadata !906}
!994 = metadata !{i32 786478, i32 0, metadata !908, metadata !"operator=", metadata !"operator=", metadata !"_ZN11ap_int_baseILi3ELb1ELb1EEaSEPKc", metadata !67, i32 1588, metadata !995, i1 false, i1 false, i32 0, i32 0, null, i32 256, i1 false, null, null, i32 0, metadata !83, i32 1588} ; [ DW_TAG_subprogram ]
!995 = metadata !{i32 786453, i32 0, metadata !"", i32 0, i32 0, i64 0, i64 0, i64 0, i32 0, null, metadata !996, i32 0, i32 0} ; [ DW_TAG_subroutine_type ]
!996 = metadata !{metadata !990, metadata !924, metadata !167}
!997 = metadata !{i32 786478, i32 0, metadata !908, metadata !"set", metadata !"set", metadata !"_ZN11ap_int_baseILi3ELb1ELb1EE3setEPKca", metadata !67, i32 1596, metadata !998, i1 false, i1 false, i32 0, i32 0, null, i32 256, i1 false, null, null, i32 0, metadata !83, i32 1596} ; [ DW_TAG_subprogram ]
!998 = metadata !{i32 786453, i32 0, metadata !"", i32 0, i32 0, i64 0, i64 0, i64 0, i32 0, null, metadata !999, i32 0, i32 0} ; [ DW_TAG_subroutine_type ]
!999 = metadata !{metadata !990, metadata !924, metadata !167, metadata !113}
!1000 = metadata !{i32 786478, i32 0, metadata !908, metadata !"operator=", metadata !"operator=", metadata !"_ZN11ap_int_baseILi3ELb1ELb1EEaSEa", metadata !67, i32 1610, metadata !1001, i1 false, i1 false, i32 0, i32 0, null, i32 256, i1 false, null, null, i32 0, metadata !83, i32 1610} ; [ DW_TAG_subprogram ]
!1001 = metadata !{i32 786453, i32 0, metadata !"", i32 0, i32 0, i64 0, i64 0, i64 0, i32 0, null, metadata !1002, i32 0, i32 0} ; [ DW_TAG_subroutine_type ]
!1002 = metadata !{metadata !990, metadata !924, metadata !113}
!1003 = metadata !{i32 786478, i32 0, metadata !908, metadata !"operator=", metadata !"operator=", metadata !"_ZN11ap_int_baseILi3ELb1ELb1EEaSEh", metadata !67, i32 1611, metadata !1004, i1 false, i1 false, i32 0, i32 0, null, i32 256, i1 false, null, null, i32 0, metadata !83, i32 1611} ; [ DW_TAG_subprogram ]
!1004 = metadata !{i32 786453, i32 0, metadata !"", i32 0, i32 0, i64 0, i64 0, i64 0, i32 0, null, metadata !1005, i32 0, i32 0} ; [ DW_TAG_subroutine_type ]
!1005 = metadata !{metadata !990, metadata !924, metadata !117}
!1006 = metadata !{i32 786478, i32 0, metadata !908, metadata !"operator=", metadata !"operator=", metadata !"_ZN11ap_int_baseILi3ELb1ELb1EEaSEs", metadata !67, i32 1612, metadata !1007, i1 false, i1 false, i32 0, i32 0, null, i32 256, i1 false, null, null, i32 0, metadata !83, i32 1612} ; [ DW_TAG_subprogram ]
!1007 = metadata !{i32 786453, i32 0, metadata !"", i32 0, i32 0, i64 0, i64 0, i64 0, i32 0, null, metadata !1008, i32 0, i32 0} ; [ DW_TAG_subroutine_type ]
!1008 = metadata !{metadata !990, metadata !924, metadata !121}
!1009 = metadata !{i32 786478, i32 0, metadata !908, metadata !"operator=", metadata !"operator=", metadata !"_ZN11ap_int_baseILi3ELb1ELb1EEaSEt", metadata !67, i32 1613, metadata !1010, i1 false, i1 false, i32 0, i32 0, null, i32 256, i1 false, null, null, i32 0, metadata !83, i32 1613} ; [ DW_TAG_subprogram ]
!1010 = metadata !{i32 786453, i32 0, metadata !"", i32 0, i32 0, i64 0, i64 0, i64 0, i32 0, null, metadata !1011, i32 0, i32 0} ; [ DW_TAG_subroutine_type ]
!1011 = metadata !{metadata !990, metadata !924, metadata !125}
!1012 = metadata !{i32 786478, i32 0, metadata !908, metadata !"operator=", metadata !"operator=", metadata !"_ZN11ap_int_baseILi3ELb1ELb1EEaSEi", metadata !67, i32 1614, metadata !1013, i1 false, i1 false, i32 0, i32 0, null, i32 256, i1 false, null, null, i32 0, metadata !83, i32 1614} ; [ DW_TAG_subprogram ]
!1013 = metadata !{i32 786453, i32 0, metadata !"", i32 0, i32 0, i64 0, i64 0, i64 0, i32 0, null, metadata !1014, i32 0, i32 0} ; [ DW_TAG_subroutine_type ]
!1014 = metadata !{metadata !990, metadata !924, metadata !87}
!1015 = metadata !{i32 786478, i32 0, metadata !908, metadata !"operator=", metadata !"operator=", metadata !"_ZN11ap_int_baseILi3ELb1ELb1EEaSEj", metadata !67, i32 1615, metadata !1016, i1 false, i1 false, i32 0, i32 0, null, i32 256, i1 false, null, null, i32 0, metadata !83, i32 1615} ; [ DW_TAG_subprogram ]
!1016 = metadata !{i32 786453, i32 0, metadata !"", i32 0, i32 0, i64 0, i64 0, i64 0, i32 0, null, metadata !1017, i32 0, i32 0} ; [ DW_TAG_subroutine_type ]
!1017 = metadata !{metadata !990, metadata !924, metadata !132}
!1018 = metadata !{i32 786478, i32 0, metadata !908, metadata !"operator=", metadata !"operator=", metadata !"_ZN11ap_int_baseILi3ELb1ELb1EEaSEx", metadata !67, i32 1616, metadata !1019, i1 false, i1 false, i32 0, i32 0, null, i32 256, i1 false, null, null, i32 0, metadata !83, i32 1616} ; [ DW_TAG_subprogram ]
!1019 = metadata !{i32 786453, i32 0, metadata !"", i32 0, i32 0, i64 0, i64 0, i64 0, i32 0, null, metadata !1020, i32 0, i32 0} ; [ DW_TAG_subroutine_type ]
!1020 = metadata !{metadata !990, metadata !924, metadata !144}
!1021 = metadata !{i32 786478, i32 0, metadata !908, metadata !"operator=", metadata !"operator=", metadata !"_ZN11ap_int_baseILi3ELb1ELb1EEaSEy", metadata !67, i32 1617, metadata !1022, i1 false, i1 false, i32 0, i32 0, null, i32 256, i1 false, null, null, i32 0, metadata !83, i32 1617} ; [ DW_TAG_subprogram ]
!1022 = metadata !{i32 786453, i32 0, metadata !"", i32 0, i32 0, i64 0, i64 0, i64 0, i32 0, null, metadata !1023, i32 0, i32 0} ; [ DW_TAG_subroutine_type ]
!1023 = metadata !{metadata !990, metadata !924, metadata !149}
!1024 = metadata !{i32 786478, i32 0, metadata !908, metadata !"operator signed char", metadata !"operator signed char", metadata !"_ZNK11ap_int_baseILi3ELb1ELb1EEcvaEv", metadata !67, i32 1655, metadata !1025, i1 false, i1 false, i32 0, i32 0, null, i32 256, i1 false, null, null, i32 0, metadata !83, i32 1655} ; [ DW_TAG_subprogram ]
!1025 = metadata !{i32 786453, i32 0, metadata !"", i32 0, i32 0, i64 0, i64 0, i64 0, i32 0, null, metadata !1026, i32 0, i32 0} ; [ DW_TAG_subroutine_type ]
!1026 = metadata !{metadata !1027, metadata !1032}
!1027 = metadata !{i32 786454, metadata !908, metadata !"RetType", metadata !67, i32 1403, i64 0, i64 0, i64 0, i32 0, metadata !1028} ; [ DW_TAG_typedef ]
!1028 = metadata !{i32 786454, metadata !1029, metadata !"Type", metadata !67, i32 1368, i64 0, i64 0, i64 0, i32 0, metadata !113} ; [ DW_TAG_typedef ]
!1029 = metadata !{i32 786434, null, metadata !"retval<1, true>", metadata !67, i32 1367, i64 8, i64 8, i32 0, i32 0, null, metadata !227, i32 0, null, metadata !1030} ; [ DW_TAG_class_type ]
!1030 = metadata !{metadata !1031, metadata !88}
!1031 = metadata !{i32 786480, null, metadata !"_AP_N", metadata !87, i64 1, null, i32 0, i32 0} ; [ DW_TAG_template_value_parameter ]
!1032 = metadata !{i32 786447, i32 0, metadata !"", i32 0, i32 0, i64 32, i64 32, i64 0, i32 64, metadata !907} ; [ DW_TAG_pointer_type ]
!1033 = metadata !{i32 786478, i32 0, metadata !908, metadata !"to_bool", metadata !"to_bool", metadata !"_ZNK11ap_int_baseILi3ELb1ELb1EE7to_boolEv", metadata !67, i32 1661, metadata !1034, i1 false, i1 false, i32 0, i32 0, null, i32 256, i1 false, null, null, i32 0, metadata !83, i32 1661} ; [ DW_TAG_subprogram ]
!1034 = metadata !{i32 786453, i32 0, metadata !"", i32 0, i32 0, i64 0, i64 0, i64 0, i32 0, null, metadata !1035, i32 0, i32 0} ; [ DW_TAG_subroutine_type ]
!1035 = metadata !{metadata !89, metadata !1032}
!1036 = metadata !{i32 786478, i32 0, metadata !908, metadata !"to_uchar", metadata !"to_uchar", metadata !"_ZNK11ap_int_baseILi3ELb1ELb1EE8to_ucharEv", metadata !67, i32 1662, metadata !1037, i1 false, i1 false, i32 0, i32 0, null, i32 256, i1 false, null, null, i32 0, metadata !83, i32 1662} ; [ DW_TAG_subprogram ]
!1037 = metadata !{i32 786453, i32 0, metadata !"", i32 0, i32 0, i64 0, i64 0, i64 0, i32 0, null, metadata !1038, i32 0, i32 0} ; [ DW_TAG_subroutine_type ]
!1038 = metadata !{metadata !117, metadata !1032}
!1039 = metadata !{i32 786478, i32 0, metadata !908, metadata !"to_char", metadata !"to_char", metadata !"_ZNK11ap_int_baseILi3ELb1ELb1EE7to_charEv", metadata !67, i32 1663, metadata !1040, i1 false, i1 false, i32 0, i32 0, null, i32 256, i1 false, null, null, i32 0, metadata !83, i32 1663} ; [ DW_TAG_subprogram ]
!1040 = metadata !{i32 786453, i32 0, metadata !"", i32 0, i32 0, i64 0, i64 0, i64 0, i32 0, null, metadata !1041, i32 0, i32 0} ; [ DW_TAG_subroutine_type ]
!1041 = metadata !{metadata !113, metadata !1032}
!1042 = metadata !{i32 786478, i32 0, metadata !908, metadata !"to_ushort", metadata !"to_ushort", metadata !"_ZNK11ap_int_baseILi3ELb1ELb1EE9to_ushortEv", metadata !67, i32 1664, metadata !1043, i1 false, i1 false, i32 0, i32 0, null, i32 256, i1 false, null, null, i32 0, metadata !83, i32 1664} ; [ DW_TAG_subprogram ]
!1043 = metadata !{i32 786453, i32 0, metadata !"", i32 0, i32 0, i64 0, i64 0, i64 0, i32 0, null, metadata !1044, i32 0, i32 0} ; [ DW_TAG_subroutine_type ]
!1044 = metadata !{metadata !125, metadata !1032}
!1045 = metadata !{i32 786478, i32 0, metadata !908, metadata !"to_short", metadata !"to_short", metadata !"_ZNK11ap_int_baseILi3ELb1ELb1EE8to_shortEv", metadata !67, i32 1665, metadata !1046, i1 false, i1 false, i32 0, i32 0, null, i32 256, i1 false, null, null, i32 0, metadata !83, i32 1665} ; [ DW_TAG_subprogram ]
!1046 = metadata !{i32 786453, i32 0, metadata !"", i32 0, i32 0, i64 0, i64 0, i64 0, i32 0, null, metadata !1047, i32 0, i32 0} ; [ DW_TAG_subroutine_type ]
!1047 = metadata !{metadata !121, metadata !1032}
!1048 = metadata !{i32 786478, i32 0, metadata !908, metadata !"to_int", metadata !"to_int", metadata !"_ZNK11ap_int_baseILi3ELb1ELb1EE6to_intEv", metadata !67, i32 1666, metadata !1049, i1 false, i1 false, i32 0, i32 0, null, i32 256, i1 false, null, null, i32 0, metadata !83, i32 1666} ; [ DW_TAG_subprogram ]
!1049 = metadata !{i32 786453, i32 0, metadata !"", i32 0, i32 0, i64 0, i64 0, i64 0, i32 0, null, metadata !1050, i32 0, i32 0} ; [ DW_TAG_subroutine_type ]
!1050 = metadata !{metadata !87, metadata !1032}
!1051 = metadata !{i32 786478, i32 0, metadata !908, metadata !"to_uint", metadata !"to_uint", metadata !"_ZNK11ap_int_baseILi3ELb1ELb1EE7to_uintEv", metadata !67, i32 1667, metadata !1052, i1 false, i1 false, i32 0, i32 0, null, i32 256, i1 false, null, null, i32 0, metadata !83, i32 1667} ; [ DW_TAG_subprogram ]
!1052 = metadata !{i32 786453, i32 0, metadata !"", i32 0, i32 0, i64 0, i64 0, i64 0, i32 0, null, metadata !1053, i32 0, i32 0} ; [ DW_TAG_subroutine_type ]
!1053 = metadata !{metadata !132, metadata !1032}
!1054 = metadata !{i32 786478, i32 0, metadata !908, metadata !"to_long", metadata !"to_long", metadata !"_ZNK11ap_int_baseILi3ELb1ELb1EE7to_longEv", metadata !67, i32 1668, metadata !1055, i1 false, i1 false, i32 0, i32 0, null, i32 256, i1 false, null, null, i32 0, metadata !83, i32 1668} ; [ DW_TAG_subprogram ]
!1055 = metadata !{i32 786453, i32 0, metadata !"", i32 0, i32 0, i64 0, i64 0, i64 0, i32 0, null, metadata !1056, i32 0, i32 0} ; [ DW_TAG_subroutine_type ]
!1056 = metadata !{metadata !136, metadata !1032}
!1057 = metadata !{i32 786478, i32 0, metadata !908, metadata !"to_ulong", metadata !"to_ulong", metadata !"_ZNK11ap_int_baseILi3ELb1ELb1EE8to_ulongEv", metadata !67, i32 1669, metadata !1058, i1 false, i1 false, i32 0, i32 0, null, i32 256, i1 false, null, null, i32 0, metadata !83, i32 1669} ; [ DW_TAG_subprogram ]
!1058 = metadata !{i32 786453, i32 0, metadata !"", i32 0, i32 0, i64 0, i64 0, i64 0, i32 0, null, metadata !1059, i32 0, i32 0} ; [ DW_TAG_subroutine_type ]
!1059 = metadata !{metadata !140, metadata !1032}
!1060 = metadata !{i32 786478, i32 0, metadata !908, metadata !"to_int64", metadata !"to_int64", metadata !"_ZNK11ap_int_baseILi3ELb1ELb1EE8to_int64Ev", metadata !67, i32 1670, metadata !1061, i1 false, i1 false, i32 0, i32 0, null, i32 256, i1 false, null, null, i32 0, metadata !83, i32 1670} ; [ DW_TAG_subprogram ]
!1061 = metadata !{i32 786453, i32 0, metadata !"", i32 0, i32 0, i64 0, i64 0, i64 0, i32 0, null, metadata !1062, i32 0, i32 0} ; [ DW_TAG_subroutine_type ]
!1062 = metadata !{metadata !144, metadata !1032}
!1063 = metadata !{i32 786478, i32 0, metadata !908, metadata !"to_uint64", metadata !"to_uint64", metadata !"_ZNK11ap_int_baseILi3ELb1ELb1EE9to_uint64Ev", metadata !67, i32 1671, metadata !1064, i1 false, i1 false, i32 0, i32 0, null, i32 256, i1 false, null, null, i32 0, metadata !83, i32 1671} ; [ DW_TAG_subprogram ]
!1064 = metadata !{i32 786453, i32 0, metadata !"", i32 0, i32 0, i64 0, i64 0, i64 0, i32 0, null, metadata !1065, i32 0, i32 0} ; [ DW_TAG_subroutine_type ]
!1065 = metadata !{metadata !149, metadata !1032}
!1066 = metadata !{i32 786478, i32 0, metadata !908, metadata !"to_double", metadata !"to_double", metadata !"_ZNK11ap_int_baseILi3ELb1ELb1EE9to_doubleEv", metadata !67, i32 1672, metadata !1067, i1 false, i1 false, i32 0, i32 0, null, i32 256, i1 false, null, null, i32 0, metadata !83, i32 1672} ; [ DW_TAG_subprogram ]
!1067 = metadata !{i32 786453, i32 0, metadata !"", i32 0, i32 0, i64 0, i64 0, i64 0, i32 0, null, metadata !1068, i32 0, i32 0} ; [ DW_TAG_subroutine_type ]
!1068 = metadata !{metadata !163, metadata !1032}
!1069 = metadata !{i32 786478, i32 0, metadata !908, metadata !"length", metadata !"length", metadata !"_ZNK11ap_int_baseILi3ELb1ELb1EE6lengthEv", metadata !67, i32 1686, metadata !1049, i1 false, i1 false, i32 0, i32 0, null, i32 256, i1 false, null, null, i32 0, metadata !83, i32 1686} ; [ DW_TAG_subprogram ]
!1070 = metadata !{i32 786478, i32 0, metadata !908, metadata !"length", metadata !"length", metadata !"_ZNVK11ap_int_baseILi3ELb1ELb1EE6lengthEv", metadata !67, i32 1687, metadata !1071, i1 false, i1 false, i32 0, i32 0, null, i32 256, i1 false, null, null, i32 0, metadata !83, i32 1687} ; [ DW_TAG_subprogram ]
!1071 = metadata !{i32 786453, i32 0, metadata !"", i32 0, i32 0, i64 0, i64 0, i64 0, i32 0, null, metadata !1072, i32 0, i32 0} ; [ DW_TAG_subroutine_type ]
!1072 = metadata !{metadata !87, metadata !1073}
!1073 = metadata !{i32 786447, i32 0, metadata !"", i32 0, i32 0, i64 32, i64 32, i64 0, i32 64, metadata !985} ; [ DW_TAG_pointer_type ]
!1074 = metadata !{i32 786478, i32 0, metadata !908, metadata !"reverse", metadata !"reverse", metadata !"_ZN11ap_int_baseILi3ELb1ELb1EE7reverseEv", metadata !67, i32 1692, metadata !1075, i1 false, i1 false, i32 0, i32 0, null, i32 256, i1 false, null, null, i32 0, metadata !83, i32 1692} ; [ DW_TAG_subprogram ]
!1075 = metadata !{i32 786453, i32 0, metadata !"", i32 0, i32 0, i64 0, i64 0, i64 0, i32 0, null, metadata !1076, i32 0, i32 0} ; [ DW_TAG_subroutine_type ]
!1076 = metadata !{metadata !990, metadata !924}
!1077 = metadata !{i32 786478, i32 0, metadata !908, metadata !"iszero", metadata !"iszero", metadata !"_ZNK11ap_int_baseILi3ELb1ELb1EE6iszeroEv", metadata !67, i32 1698, metadata !1034, i1 false, i1 false, i32 0, i32 0, null, i32 256, i1 false, null, null, i32 0, metadata !83, i32 1698} ; [ DW_TAG_subprogram ]
!1078 = metadata !{i32 786478, i32 0, metadata !908, metadata !"is_zero", metadata !"is_zero", metadata !"_ZNK11ap_int_baseILi3ELb1ELb1EE7is_zeroEv", metadata !67, i32 1703, metadata !1034, i1 false, i1 false, i32 0, i32 0, null, i32 256, i1 false, null, null, i32 0, metadata !83, i32 1703} ; [ DW_TAG_subprogram ]
!1079 = metadata !{i32 786478, i32 0, metadata !908, metadata !"sign", metadata !"sign", metadata !"_ZNK11ap_int_baseILi3ELb1ELb1EE4signEv", metadata !67, i32 1708, metadata !1034, i1 false, i1 false, i32 0, i32 0, null, i32 256, i1 false, null, null, i32 0, metadata !83, i32 1708} ; [ DW_TAG_subprogram ]
!1080 = metadata !{i32 786478, i32 0, metadata !908, metadata !"clear", metadata !"clear", metadata !"_ZN11ap_int_baseILi3ELb1ELb1EE5clearEi", metadata !67, i32 1716, metadata !941, i1 false, i1 false, i32 0, i32 0, null, i32 256, i1 false, null, null, i32 0, metadata !83, i32 1716} ; [ DW_TAG_subprogram ]
!1081 = metadata !{i32 786478, i32 0, metadata !908, metadata !"invert", metadata !"invert", metadata !"_ZN11ap_int_baseILi3ELb1ELb1EE6invertEi", metadata !67, i32 1722, metadata !941, i1 false, i1 false, i32 0, i32 0, null, i32 256, i1 false, null, null, i32 0, metadata !83, i32 1722} ; [ DW_TAG_subprogram ]
!1082 = metadata !{i32 786478, i32 0, metadata !908, metadata !"test", metadata !"test", metadata !"_ZNK11ap_int_baseILi3ELb1ELb1EE4testEi", metadata !67, i32 1730, metadata !1083, i1 false, i1 false, i32 0, i32 0, null, i32 256, i1 false, null, null, i32 0, metadata !83, i32 1730} ; [ DW_TAG_subprogram ]
!1083 = metadata !{i32 786453, i32 0, metadata !"", i32 0, i32 0, i64 0, i64 0, i64 0, i32 0, null, metadata !1084, i32 0, i32 0} ; [ DW_TAG_subroutine_type ]
!1084 = metadata !{metadata !89, metadata !1032, metadata !87}
!1085 = metadata !{i32 786478, i32 0, metadata !908, metadata !"set", metadata !"set", metadata !"_ZN11ap_int_baseILi3ELb1ELb1EE3setEi", metadata !67, i32 1736, metadata !941, i1 false, i1 false, i32 0, i32 0, null, i32 256, i1 false, null, null, i32 0, metadata !83, i32 1736} ; [ DW_TAG_subprogram ]
!1086 = metadata !{i32 786478, i32 0, metadata !908, metadata !"set", metadata !"set", metadata !"_ZN11ap_int_baseILi3ELb1ELb1EE3setEib", metadata !67, i32 1742, metadata !1087, i1 false, i1 false, i32 0, i32 0, null, i32 256, i1 false, null, null, i32 0, metadata !83, i32 1742} ; [ DW_TAG_subprogram ]
!1087 = metadata !{i32 786453, i32 0, metadata !"", i32 0, i32 0, i64 0, i64 0, i64 0, i32 0, null, metadata !1088, i32 0, i32 0} ; [ DW_TAG_subroutine_type ]
!1088 = metadata !{null, metadata !924, metadata !87, metadata !89}
!1089 = metadata !{i32 786478, i32 0, metadata !908, metadata !"lrotate", metadata !"lrotate", metadata !"_ZN11ap_int_baseILi3ELb1ELb1EE7lrotateEi", metadata !67, i32 1749, metadata !941, i1 false, i1 false, i32 0, i32 0, null, i32 256, i1 false, null, null, i32 0, metadata !83, i32 1749} ; [ DW_TAG_subprogram ]
!1090 = metadata !{i32 786478, i32 0, metadata !908, metadata !"rrotate", metadata !"rrotate", metadata !"_ZN11ap_int_baseILi3ELb1ELb1EE7rrotateEi", metadata !67, i32 1758, metadata !941, i1 false, i1 false, i32 0, i32 0, null, i32 256, i1 false, null, null, i32 0, metadata !83, i32 1758} ; [ DW_TAG_subprogram ]
!1091 = metadata !{i32 786478, i32 0, metadata !908, metadata !"set_bit", metadata !"set_bit", metadata !"_ZN11ap_int_baseILi3ELb1ELb1EE7set_bitEib", metadata !67, i32 1766, metadata !1087, i1 false, i1 false, i32 0, i32 0, null, i32 256, i1 false, null, null, i32 0, metadata !83, i32 1766} ; [ DW_TAG_subprogram ]
!1092 = metadata !{i32 786478, i32 0, metadata !908, metadata !"get_bit", metadata !"get_bit", metadata !"_ZNK11ap_int_baseILi3ELb1ELb1EE7get_bitEi", metadata !67, i32 1771, metadata !1083, i1 false, i1 false, i32 0, i32 0, null, i32 256, i1 false, null, null, i32 0, metadata !83, i32 1771} ; [ DW_TAG_subprogram ]
!1093 = metadata !{i32 786478, i32 0, metadata !908, metadata !"b_not", metadata !"b_not", metadata !"_ZN11ap_int_baseILi3ELb1ELb1EE5b_notEv", metadata !67, i32 1776, metadata !922, i1 false, i1 false, i32 0, i32 0, null, i32 256, i1 false, null, null, i32 0, metadata !83, i32 1776} ; [ DW_TAG_subprogram ]
!1094 = metadata !{i32 786478, i32 0, metadata !908, metadata !"countLeadingZeros", metadata !"countLeadingZeros", metadata !"_ZN11ap_int_baseILi3ELb1ELb1EE17countLeadingZerosEv", metadata !67, i32 1783, metadata !1095, i1 false, i1 false, i32 0, i32 0, null, i32 256, i1 false, null, null, i32 0, metadata !83, i32 1783} ; [ DW_TAG_subprogram ]
!1095 = metadata !{i32 786453, i32 0, metadata !"", i32 0, i32 0, i64 0, i64 0, i64 0, i32 0, null, metadata !1096, i32 0, i32 0} ; [ DW_TAG_subroutine_type ]
!1096 = metadata !{metadata !87, metadata !924}
!1097 = metadata !{i32 786478, i32 0, metadata !908, metadata !"operator++", metadata !"operator++", metadata !"_ZN11ap_int_baseILi3ELb1ELb1EEppEv", metadata !67, i32 1840, metadata !1075, i1 false, i1 false, i32 0, i32 0, null, i32 256, i1 false, null, null, i32 0, metadata !83, i32 1840} ; [ DW_TAG_subprogram ]
!1098 = metadata !{i32 786478, i32 0, metadata !908, metadata !"operator--", metadata !"operator--", metadata !"_ZN11ap_int_baseILi3ELb1ELb1EEmmEv", metadata !67, i32 1844, metadata !1075, i1 false, i1 false, i32 0, i32 0, null, i32 256, i1 false, null, null, i32 0, metadata !83, i32 1844} ; [ DW_TAG_subprogram ]
!1099 = metadata !{i32 786478, i32 0, metadata !908, metadata !"operator++", metadata !"operator++", metadata !"_ZN11ap_int_baseILi3ELb1ELb1EEppEi", metadata !67, i32 1852, metadata !1100, i1 false, i1 false, i32 0, i32 0, null, i32 256, i1 false, null, null, i32 0, metadata !83, i32 1852} ; [ DW_TAG_subprogram ]
!1100 = metadata !{i32 786453, i32 0, metadata !"", i32 0, i32 0, i64 0, i64 0, i64 0, i32 0, null, metadata !1101, i32 0, i32 0} ; [ DW_TAG_subroutine_type ]
!1101 = metadata !{metadata !907, metadata !924, metadata !87}
!1102 = metadata !{i32 786478, i32 0, metadata !908, metadata !"operator--", metadata !"operator--", metadata !"_ZN11ap_int_baseILi3ELb1ELb1EEmmEi", metadata !67, i32 1857, metadata !1100, i1 false, i1 false, i32 0, i32 0, null, i32 256, i1 false, null, null, i32 0, metadata !83, i32 1857} ; [ DW_TAG_subprogram ]
!1103 = metadata !{i32 786478, i32 0, metadata !908, metadata !"operator+", metadata !"operator+", metadata !"_ZNK11ap_int_baseILi3ELb1ELb1EEpsEv", metadata !67, i32 1866, metadata !1104, i1 false, i1 false, i32 0, i32 0, null, i32 256, i1 false, null, null, i32 0, metadata !83, i32 1866} ; [ DW_TAG_subprogram ]
!1104 = metadata !{i32 786453, i32 0, metadata !"", i32 0, i32 0, i64 0, i64 0, i64 0, i32 0, null, metadata !1105, i32 0, i32 0} ; [ DW_TAG_subroutine_type ]
!1105 = metadata !{metadata !908, metadata !1032}
!1106 = metadata !{i32 786478, i32 0, metadata !908, metadata !"operator!", metadata !"operator!", metadata !"_ZNK11ap_int_baseILi3ELb1ELb1EEntEv", metadata !67, i32 1872, metadata !1034, i1 false, i1 false, i32 0, i32 0, null, i32 256, i1 false, null, null, i32 0, metadata !83, i32 1872} ; [ DW_TAG_subprogram ]
!1107 = metadata !{i32 786478, i32 0, metadata !908, metadata !"operator-", metadata !"operator-", metadata !"_ZNK11ap_int_baseILi3ELb1ELb1EEngEv", metadata !67, i32 1877, metadata !1108, i1 false, i1 false, i32 0, i32 0, null, i32 256, i1 false, null, null, i32 0, metadata !83, i32 1877} ; [ DW_TAG_subprogram ]
!1108 = metadata !{i32 786453, i32 0, metadata !"", i32 0, i32 0, i64 0, i64 0, i64 0, i32 0, null, metadata !1109, i32 0, i32 0} ; [ DW_TAG_subroutine_type ]
!1109 = metadata !{metadata !1110, metadata !1032}
!1110 = metadata !{i32 786434, null, metadata !"ap_int_base<4, true, true>", metadata !67, i32 651, i32 0, i32 0, i32 0, i32 4, null, null, i32 0} ; [ DW_TAG_class_type ]
!1111 = metadata !{i32 786478, i32 0, metadata !908, metadata !"range", metadata !"range", metadata !"_ZN11ap_int_baseILi3ELb1ELb1EE5rangeEii", metadata !67, i32 2007, metadata !1112, i1 false, i1 false, i32 0, i32 0, null, i32 256, i1 false, null, null, i32 0, metadata !83, i32 2007} ; [ DW_TAG_subprogram ]
!1112 = metadata !{i32 786453, i32 0, metadata !"", i32 0, i32 0, i64 0, i64 0, i64 0, i32 0, null, metadata !1113, i32 0, i32 0} ; [ DW_TAG_subroutine_type ]
!1113 = metadata !{metadata !1114, metadata !924, metadata !87, metadata !87}
!1114 = metadata !{i32 786434, null, metadata !"ap_range_ref<3, true>", metadata !67, i32 924, i32 0, i32 0, i32 0, i32 4, null, null, i32 0} ; [ DW_TAG_class_type ]
!1115 = metadata !{i32 786478, i32 0, metadata !908, metadata !"operator()", metadata !"operator()", metadata !"_ZN11ap_int_baseILi3ELb1ELb1EEclEii", metadata !67, i32 2013, metadata !1112, i1 false, i1 false, i32 0, i32 0, null, i32 256, i1 false, null, null, i32 0, metadata !83, i32 2013} ; [ DW_TAG_subprogram ]
!1116 = metadata !{i32 786478, i32 0, metadata !908, metadata !"range", metadata !"range", metadata !"_ZNK11ap_int_baseILi3ELb1ELb1EE5rangeEii", metadata !67, i32 2019, metadata !1117, i1 false, i1 false, i32 0, i32 0, null, i32 256, i1 false, null, null, i32 0, metadata !83, i32 2019} ; [ DW_TAG_subprogram ]
!1117 = metadata !{i32 786453, i32 0, metadata !"", i32 0, i32 0, i64 0, i64 0, i64 0, i32 0, null, metadata !1118, i32 0, i32 0} ; [ DW_TAG_subroutine_type ]
!1118 = metadata !{metadata !1114, metadata !1032, metadata !87, metadata !87}
!1119 = metadata !{i32 786478, i32 0, metadata !908, metadata !"operator()", metadata !"operator()", metadata !"_ZNK11ap_int_baseILi3ELb1ELb1EEclEii", metadata !67, i32 2025, metadata !1117, i1 false, i1 false, i32 0, i32 0, null, i32 256, i1 false, null, null, i32 0, metadata !83, i32 2025} ; [ DW_TAG_subprogram ]
!1120 = metadata !{i32 786478, i32 0, metadata !908, metadata !"operator[]", metadata !"operator[]", metadata !"_ZN11ap_int_baseILi3ELb1ELb1EEixEi", metadata !67, i32 2044, metadata !1121, i1 false, i1 false, i32 0, i32 0, null, i32 256, i1 false, null, null, i32 0, metadata !83, i32 2044} ; [ DW_TAG_subprogram ]
!1121 = metadata !{i32 786453, i32 0, metadata !"", i32 0, i32 0, i64 0, i64 0, i64 0, i32 0, null, metadata !1122, i32 0, i32 0} ; [ DW_TAG_subroutine_type ]
!1122 = metadata !{metadata !1123, metadata !924, metadata !87}
!1123 = metadata !{i32 786434, null, metadata !"ap_bit_ref<3, true>", metadata !67, i32 1194, i32 0, i32 0, i32 0, i32 4, null, null, i32 0} ; [ DW_TAG_class_type ]
!1124 = metadata !{i32 786478, i32 0, metadata !908, metadata !"operator[]", metadata !"operator[]", metadata !"_ZNK11ap_int_baseILi3ELb1ELb1EEixEi", metadata !67, i32 2058, metadata !1083, i1 false, i1 false, i32 0, i32 0, null, i32 256, i1 false, null, null, i32 0, metadata !83, i32 2058} ; [ DW_TAG_subprogram ]
!1125 = metadata !{i32 786478, i32 0, metadata !908, metadata !"bit", metadata !"bit", metadata !"_ZN11ap_int_baseILi3ELb1ELb1EE3bitEi", metadata !67, i32 2072, metadata !1121, i1 false, i1 false, i32 0, i32 0, null, i32 256, i1 false, null, null, i32 0, metadata !83, i32 2072} ; [ DW_TAG_subprogram ]
!1126 = metadata !{i32 786478, i32 0, metadata !908, metadata !"bit", metadata !"bit", metadata !"_ZNK11ap_int_baseILi3ELb1ELb1EE3bitEi", metadata !67, i32 2086, metadata !1083, i1 false, i1 false, i32 0, i32 0, null, i32 256, i1 false, null, null, i32 0, metadata !83, i32 2086} ; [ DW_TAG_subprogram ]
!1127 = metadata !{i32 786478, i32 0, metadata !908, metadata !"and_reduce", metadata !"and_reduce", metadata !"_ZN11ap_int_baseILi3ELb1ELb1EE10and_reduceEv", metadata !67, i32 2266, metadata !1128, i1 false, i1 false, i32 0, i32 0, null, i32 256, i1 false, null, null, i32 0, metadata !83, i32 2266} ; [ DW_TAG_subprogram ]
!1128 = metadata !{i32 786453, i32 0, metadata !"", i32 0, i32 0, i64 0, i64 0, i64 0, i32 0, null, metadata !1129, i32 0, i32 0} ; [ DW_TAG_subroutine_type ]
!1129 = metadata !{metadata !89, metadata !924}
!1130 = metadata !{i32 786478, i32 0, metadata !908, metadata !"nand_reduce", metadata !"nand_reduce", metadata !"_ZN11ap_int_baseILi3ELb1ELb1EE11nand_reduceEv", metadata !67, i32 2269, metadata !1128, i1 false, i1 false, i32 0, i32 0, null, i32 256, i1 false, null, null, i32 0, metadata !83, i32 2269} ; [ DW_TAG_subprogram ]
!1131 = metadata !{i32 786478, i32 0, metadata !908, metadata !"or_reduce", metadata !"or_reduce", metadata !"_ZN11ap_int_baseILi3ELb1ELb1EE9or_reduceEv", metadata !67, i32 2272, metadata !1128, i1 false, i1 false, i32 0, i32 0, null, i32 256, i1 false, null, null, i32 0, metadata !83, i32 2272} ; [ DW_TAG_subprogram ]
!1132 = metadata !{i32 786478, i32 0, metadata !908, metadata !"nor_reduce", metadata !"nor_reduce", metadata !"_ZN11ap_int_baseILi3ELb1ELb1EE10nor_reduceEv", metadata !67, i32 2275, metadata !1128, i1 false, i1 false, i32 0, i32 0, null, i32 256, i1 false, null, null, i32 0, metadata !83, i32 2275} ; [ DW_TAG_subprogram ]
!1133 = metadata !{i32 786478, i32 0, metadata !908, metadata !"xor_reduce", metadata !"xor_reduce", metadata !"_ZN11ap_int_baseILi3ELb1ELb1EE10xor_reduceEv", metadata !67, i32 2278, metadata !1128, i1 false, i1 false, i32 0, i32 0, null, i32 256, i1 false, null, null, i32 0, metadata !83, i32 2278} ; [ DW_TAG_subprogram ]
!1134 = metadata !{i32 786478, i32 0, metadata !908, metadata !"xnor_reduce", metadata !"xnor_reduce", metadata !"_ZN11ap_int_baseILi3ELb1ELb1EE11xnor_reduceEv", metadata !67, i32 2281, metadata !1128, i1 false, i1 false, i32 0, i32 0, null, i32 256, i1 false, null, null, i32 0, metadata !83, i32 2281} ; [ DW_TAG_subprogram ]
!1135 = metadata !{i32 786478, i32 0, metadata !908, metadata !"and_reduce", metadata !"and_reduce", metadata !"_ZNK11ap_int_baseILi3ELb1ELb1EE10and_reduceEv", metadata !67, i32 2285, metadata !1034, i1 false, i1 false, i32 0, i32 0, null, i32 256, i1 false, null, null, i32 0, metadata !83, i32 2285} ; [ DW_TAG_subprogram ]
!1136 = metadata !{i32 786478, i32 0, metadata !908, metadata !"nand_reduce", metadata !"nand_reduce", metadata !"_ZNK11ap_int_baseILi3ELb1ELb1EE11nand_reduceEv", metadata !67, i32 2288, metadata !1034, i1 false, i1 false, i32 0, i32 0, null, i32 256, i1 false, null, null, i32 0, metadata !83, i32 2288} ; [ DW_TAG_subprogram ]
!1137 = metadata !{i32 786478, i32 0, metadata !908, metadata !"or_reduce", metadata !"or_reduce", metadata !"_ZNK11ap_int_baseILi3ELb1ELb1EE9or_reduceEv", metadata !67, i32 2291, metadata !1034, i1 false, i1 false, i32 0, i32 0, null, i32 256, i1 false, null, null, i32 0, metadata !83, i32 2291} ; [ DW_TAG_subprogram ]
!1138 = metadata !{i32 786478, i32 0, metadata !908, metadata !"nor_reduce", metadata !"nor_reduce", metadata !"_ZNK11ap_int_baseILi3ELb1ELb1EE10nor_reduceEv", metadata !67, i32 2294, metadata !1034, i1 false, i1 false, i32 0, i32 0, null, i32 256, i1 false, null, null, i32 0, metadata !83, i32 2294} ; [ DW_TAG_subprogram ]
!1139 = metadata !{i32 786478, i32 0, metadata !908, metadata !"xor_reduce", metadata !"xor_reduce", metadata !"_ZNK11ap_int_baseILi3ELb1ELb1EE10xor_reduceEv", metadata !67, i32 2297, metadata !1034, i1 false, i1 false, i32 0, i32 0, null, i32 256, i1 false, null, null, i32 0, metadata !83, i32 2297} ; [ DW_TAG_subprogram ]
!1140 = metadata !{i32 786478, i32 0, metadata !908, metadata !"xnor_reduce", metadata !"xnor_reduce", metadata !"_ZNK11ap_int_baseILi3ELb1ELb1EE11xnor_reduceEv", metadata !67, i32 2300, metadata !1034, i1 false, i1 false, i32 0, i32 0, null, i32 256, i1 false, null, null, i32 0, metadata !83, i32 2300} ; [ DW_TAG_subprogram ]
!1141 = metadata !{i32 786478, i32 0, metadata !908, metadata !"to_string", metadata !"to_string", metadata !"_ZNK11ap_int_baseILi3ELb1ELb1EE9to_stringEPci8BaseModeb", metadata !67, i32 2307, metadata !1142, i1 false, i1 false, i32 0, i32 0, null, i32 256, i1 false, null, null, i32 0, metadata !83, i32 2307} ; [ DW_TAG_subprogram ]
!1142 = metadata !{i32 786453, i32 0, metadata !"", i32 0, i32 0, i64 0, i64 0, i64 0, i32 0, null, metadata !1143, i32 0, i32 0} ; [ DW_TAG_subroutine_type ]
!1143 = metadata !{null, metadata !1032, metadata !609, metadata !87, metadata !610, metadata !89}
!1144 = metadata !{i32 786478, i32 0, metadata !908, metadata !"to_string", metadata !"to_string", metadata !"_ZNK11ap_int_baseILi3ELb1ELb1EE9to_stringE8BaseModeb", metadata !67, i32 2334, metadata !1145, i1 false, i1 false, i32 0, i32 0, null, i32 256, i1 false, null, null, i32 0, metadata !83, i32 2334} ; [ DW_TAG_subprogram ]
!1145 = metadata !{i32 786453, i32 0, metadata !"", i32 0, i32 0, i64 0, i64 0, i64 0, i32 0, null, metadata !1146, i32 0, i32 0} ; [ DW_TAG_subroutine_type ]
!1146 = metadata !{metadata !609, metadata !1032, metadata !610, metadata !89}
!1147 = metadata !{i32 786478, i32 0, metadata !908, metadata !"to_string", metadata !"to_string", metadata !"_ZNK11ap_int_baseILi3ELb1ELb1EE9to_stringEab", metadata !67, i32 2338, metadata !1148, i1 false, i1 false, i32 0, i32 0, null, i32 256, i1 false, null, null, i32 0, metadata !83, i32 2338} ; [ DW_TAG_subprogram ]
!1148 = metadata !{i32 786453, i32 0, metadata !"", i32 0, i32 0, i64 0, i64 0, i64 0, i32 0, null, metadata !1149, i32 0, i32 0} ; [ DW_TAG_subroutine_type ]
!1149 = metadata !{metadata !609, metadata !1032, metadata !113, metadata !89}
!1150 = metadata !{metadata !1151, metadata !88, metadata !623}
!1151 = metadata !{i32 786480, null, metadata !"_AP_W", metadata !87, i64 3, null, i32 0, i32 0} ; [ DW_TAG_template_value_parameter ]
!1152 = metadata !{metadata !1153, metadata !100}
!1153 = metadata !{i32 786480, null, metadata !"_AP_W2", metadata !87, i64 3, null, i32 0, i32 0} ; [ DW_TAG_template_value_parameter ]
!1154 = metadata !{i32 1451, i32 111, metadata !1155, metadata !1156}
!1155 = metadata !{i32 786478, i32 0, null, metadata !"ap_int_base<3, true>", metadata !"ap_int_base<3, true>", metadata !"_ZN11ap_int_baseILi11ELb1ELb1EEC1ILi3ELb1EEERKS_IXT_EXT0_EXleT_Li64EEE", metadata !67, i32 1451, metadata !68, i1 false, i1 true, i32 0, i32 0, null, i32 256, i1 false, null, metadata !1152, null, metadata !83, i32 1451} ; [ DW_TAG_subprogram ]
!1156 = metadata !{i32 3368, i32 0, metadata !1157, metadata !1695}
!1157 = metadata !{i32 786443, metadata !1158, i32 3368, i32 256, metadata !67, i32 31} ; [ DW_TAG_lexical_block ]
!1158 = metadata !{i32 786478, i32 0, metadata !67, metadata !"operator*<8, false, 3, true>", metadata !"operator*<8, false, 3, true>", metadata !"_ZmlILi8ELb0ELi3ELb1EEN11ap_int_baseIXT_EXT0_EXleT_Li64EEE5RTypeIXT1_EXT2_EE4multERKS1_RKS0_IXT1_EXT2_EXleT1_Li64EEE", metadata !67, i32 3368, metadata !1159, i1 false, i1 true, i32 0, i32 0, null, i32 256, i1 false, null, metadata !1694, null, metadata !83, i32 3368} ; [ DW_TAG_subprogram ]
!1159 = metadata !{i32 786453, i32 0, metadata !"", i32 0, i32 0, i64 0, i64 0, i64 0, i32 0, null, metadata !1160, i32 0, i32 0} ; [ DW_TAG_subroutine_type ]
!1160 = metadata !{metadata !1161, metadata !1184, metadata !906}
!1161 = metadata !{i32 786454, metadata !1162, metadata !"mult", metadata !67, i32 1426, i64 0, i64 0, i64 0, i32 0, metadata !71} ; [ DW_TAG_typedef ]
!1162 = metadata !{i32 786434, metadata !1163, metadata !"RType<3, true>", metadata !67, i32 1410, i64 8, i64 8, i32 0, i32 0, null, metadata !227, i32 0, null, metadata !1152} ; [ DW_TAG_class_type ]
!1163 = metadata !{i32 786434, null, metadata !"ap_int_base<8, false, true>", metadata !67, i32 1398, i64 8, i64 8, i32 0, i32 0, null, metadata !1164, i32 0, null, metadata !1692} ; [ DW_TAG_class_type ]
!1164 = metadata !{metadata !1165, metadata !1177, metadata !1181, metadata !1189, metadata !1195, metadata !1198, metadata !1201, metadata !1204, metadata !1207, metadata !1210, metadata !1213, metadata !1216, metadata !1219, metadata !1222, metadata !1225, metadata !1228, metadata !1231, metadata !1234, metadata !1237, metadata !1240, metadata !1243, metadata !1247, metadata !1250, metadata !1253, metadata !1254, metadata !1258, metadata !1261, metadata !1264, metadata !1267, metadata !1270, metadata !1273, metadata !1276, metadata !1279, metadata !1282, metadata !1285, metadata !1288, metadata !1291, metadata !1299, metadata !1302, metadata !1305, metadata !1308, metadata !1311, metadata !1314, metadata !1317, metadata !1320, metadata !1323, metadata !1326, metadata !1329, metadata !1332, metadata !1335, metadata !1336, metadata !1340, metadata !1343, metadata !1344, metadata !1345, metadata !1346, metadata !1347, metadata !1348, metadata !1351, metadata !1352, metadata !1355, metadata !1356, metadata !1357, metadata !1358, metadata !1359, metadata !1360, metadata !1363, metadata !1364, metadata !1365, metadata !1368, metadata !1369, metadata !1372, metadata !1373, metadata !1652, metadata !1656, metadata !1657, metadata !1660, metadata !1661, metadata !1665, metadata !1666, metadata !1667, metadata !1668, metadata !1671, metadata !1672, metadata !1673, metadata !1674, metadata !1675, metadata !1676, metadata !1677, metadata !1678, metadata !1679, metadata !1680, metadata !1681, metadata !1682, metadata !1685, metadata !1688, metadata !1691}
!1165 = metadata !{i32 786460, metadata !1163, null, metadata !67, i32 0, i64 0, i64 0, i64 0, i32 0, metadata !1166} ; [ DW_TAG_inheritance ]
!1166 = metadata !{i32 786434, null, metadata !"ssdm_int<8 + 1024 * 0, false>", metadata !75, i32 10, i64 8, i64 8, i32 0, i32 0, null, metadata !1167, i32 0, null, metadata !1174} ; [ DW_TAG_class_type ]
!1167 = metadata !{metadata !1168, metadata !1170}
!1168 = metadata !{i32 786445, metadata !1166, metadata !"V", metadata !75, i32 10, i64 8, i64 8, i64 0, i32 0, metadata !1169} ; [ DW_TAG_member ]
!1169 = metadata !{i32 786468, null, metadata !"uint8", null, i32 0, i64 8, i64 8, i64 0, i32 0, i32 7} ; [ DW_TAG_base_type ]
!1170 = metadata !{i32 786478, i32 0, metadata !1166, metadata !"ssdm_int", metadata !"ssdm_int", metadata !"", metadata !75, i32 10, metadata !1171, i1 false, i1 false, i32 0, i32 0, null, i32 256, i1 false, null, null, i32 0, metadata !83, i32 10} ; [ DW_TAG_subprogram ]
!1171 = metadata !{i32 786453, i32 0, metadata !"", i32 0, i32 0, i64 0, i64 0, i64 0, i32 0, null, metadata !1172, i32 0, i32 0} ; [ DW_TAG_subroutine_type ]
!1172 = metadata !{null, metadata !1173}
!1173 = metadata !{i32 786447, i32 0, metadata !"", i32 0, i32 0, i64 32, i64 32, i64 0, i32 64, metadata !1166} ; [ DW_TAG_pointer_type ]
!1174 = metadata !{metadata !1175, metadata !1176}
!1175 = metadata !{i32 786480, null, metadata !"_AP_N", metadata !87, i64 8, null, i32 0, i32 0} ; [ DW_TAG_template_value_parameter ]
!1176 = metadata !{i32 786480, null, metadata !"_AP_S", metadata !89, i64 0, null, i32 0, i32 0} ; [ DW_TAG_template_value_parameter ]
!1177 = metadata !{i32 786478, i32 0, metadata !1163, metadata !"ap_int_base", metadata !"ap_int_base", metadata !"", metadata !67, i32 1439, metadata !1178, i1 false, i1 false, i32 0, i32 0, null, i32 256, i1 false, null, null, i32 0, metadata !83, i32 1439} ; [ DW_TAG_subprogram ]
!1178 = metadata !{i32 786453, i32 0, metadata !"", i32 0, i32 0, i64 0, i64 0, i64 0, i32 0, null, metadata !1179, i32 0, i32 0} ; [ DW_TAG_subroutine_type ]
!1179 = metadata !{null, metadata !1180}
!1180 = metadata !{i32 786447, i32 0, metadata !"", i32 0, i32 0, i64 32, i64 32, i64 0, i32 64, metadata !1163} ; [ DW_TAG_pointer_type ]
!1181 = metadata !{i32 786478, i32 0, metadata !1163, metadata !"ap_int_base<8, false>", metadata !"ap_int_base<8, false>", metadata !"", metadata !67, i32 1451, metadata !1182, i1 false, i1 false, i32 0, i32 0, null, i32 256, i1 false, null, metadata !1186, i32 0, metadata !83, i32 1451} ; [ DW_TAG_subprogram ]
!1182 = metadata !{i32 786453, i32 0, metadata !"", i32 0, i32 0, i64 0, i64 0, i64 0, i32 0, null, metadata !1183, i32 0, i32 0} ; [ DW_TAG_subroutine_type ]
!1183 = metadata !{null, metadata !1180, metadata !1184}
!1184 = metadata !{i32 786448, null, null, null, i32 0, i64 0, i64 0, i64 0, i32 0, metadata !1185} ; [ DW_TAG_reference_type ]
!1185 = metadata !{i32 786470, null, metadata !"", null, i32 0, i64 0, i64 0, i64 0, i32 0, metadata !1163} ; [ DW_TAG_const_type ]
!1186 = metadata !{metadata !1187, metadata !1188}
!1187 = metadata !{i32 786480, null, metadata !"_AP_W2", metadata !87, i64 8, null, i32 0, i32 0} ; [ DW_TAG_template_value_parameter ]
!1188 = metadata !{i32 786480, null, metadata !"_AP_S2", metadata !89, i64 0, null, i32 0, i32 0} ; [ DW_TAG_template_value_parameter ]
!1189 = metadata !{i32 786478, i32 0, metadata !1163, metadata !"ap_int_base<8, false>", metadata !"ap_int_base<8, false>", metadata !"", metadata !67, i32 1454, metadata !1190, i1 false, i1 false, i32 0, i32 0, null, i32 256, i1 false, null, metadata !1186, i32 0, metadata !83, i32 1454} ; [ DW_TAG_subprogram ]
!1190 = metadata !{i32 786453, i32 0, metadata !"", i32 0, i32 0, i64 0, i64 0, i64 0, i32 0, null, metadata !1191, i32 0, i32 0} ; [ DW_TAG_subroutine_type ]
!1191 = metadata !{null, metadata !1180, metadata !1192}
!1192 = metadata !{i32 786448, null, null, null, i32 0, i64 0, i64 0, i64 0, i32 0, metadata !1193} ; [ DW_TAG_reference_type ]
!1193 = metadata !{i32 786470, null, metadata !"", null, i32 0, i64 0, i64 0, i64 0, i32 0, metadata !1194} ; [ DW_TAG_const_type ]
!1194 = metadata !{i32 786485, null, metadata !"", null, i32 0, i64 0, i64 0, i64 0, i32 0, metadata !1163} ; [ DW_TAG_volatile_type ]
!1195 = metadata !{i32 786478, i32 0, metadata !1163, metadata !"ap_int_base", metadata !"ap_int_base", metadata !"", metadata !67, i32 1461, metadata !1196, i1 false, i1 false, i32 0, i32 0, null, i32 384, i1 false, null, null, i32 0, metadata !83, i32 1461} ; [ DW_TAG_subprogram ]
!1196 = metadata !{i32 786453, i32 0, metadata !"", i32 0, i32 0, i64 0, i64 0, i64 0, i32 0, null, metadata !1197, i32 0, i32 0} ; [ DW_TAG_subroutine_type ]
!1197 = metadata !{null, metadata !1180, metadata !89}
!1198 = metadata !{i32 786478, i32 0, metadata !1163, metadata !"ap_int_base", metadata !"ap_int_base", metadata !"", metadata !67, i32 1462, metadata !1199, i1 false, i1 false, i32 0, i32 0, null, i32 384, i1 false, null, null, i32 0, metadata !83, i32 1462} ; [ DW_TAG_subprogram ]
!1199 = metadata !{i32 786453, i32 0, metadata !"", i32 0, i32 0, i64 0, i64 0, i64 0, i32 0, null, metadata !1200, i32 0, i32 0} ; [ DW_TAG_subroutine_type ]
!1200 = metadata !{null, metadata !1180, metadata !113}
!1201 = metadata !{i32 786478, i32 0, metadata !1163, metadata !"ap_int_base", metadata !"ap_int_base", metadata !"", metadata !67, i32 1463, metadata !1202, i1 false, i1 false, i32 0, i32 0, null, i32 384, i1 false, null, null, i32 0, metadata !83, i32 1463} ; [ DW_TAG_subprogram ]
!1202 = metadata !{i32 786453, i32 0, metadata !"", i32 0, i32 0, i64 0, i64 0, i64 0, i32 0, null, metadata !1203, i32 0, i32 0} ; [ DW_TAG_subroutine_type ]
!1203 = metadata !{null, metadata !1180, metadata !117}
!1204 = metadata !{i32 786478, i32 0, metadata !1163, metadata !"ap_int_base", metadata !"ap_int_base", metadata !"", metadata !67, i32 1464, metadata !1205, i1 false, i1 false, i32 0, i32 0, null, i32 384, i1 false, null, null, i32 0, metadata !83, i32 1464} ; [ DW_TAG_subprogram ]
!1205 = metadata !{i32 786453, i32 0, metadata !"", i32 0, i32 0, i64 0, i64 0, i64 0, i32 0, null, metadata !1206, i32 0, i32 0} ; [ DW_TAG_subroutine_type ]
!1206 = metadata !{null, metadata !1180, metadata !121}
!1207 = metadata !{i32 786478, i32 0, metadata !1163, metadata !"ap_int_base", metadata !"ap_int_base", metadata !"", metadata !67, i32 1465, metadata !1208, i1 false, i1 false, i32 0, i32 0, null, i32 384, i1 false, null, null, i32 0, metadata !83, i32 1465} ; [ DW_TAG_subprogram ]
!1208 = metadata !{i32 786453, i32 0, metadata !"", i32 0, i32 0, i64 0, i64 0, i64 0, i32 0, null, metadata !1209, i32 0, i32 0} ; [ DW_TAG_subroutine_type ]
!1209 = metadata !{null, metadata !1180, metadata !125}
!1210 = metadata !{i32 786478, i32 0, metadata !1163, metadata !"ap_int_base", metadata !"ap_int_base", metadata !"", metadata !67, i32 1466, metadata !1211, i1 false, i1 false, i32 0, i32 0, null, i32 384, i1 false, null, null, i32 0, metadata !83, i32 1466} ; [ DW_TAG_subprogram ]
!1211 = metadata !{i32 786453, i32 0, metadata !"", i32 0, i32 0, i64 0, i64 0, i64 0, i32 0, null, metadata !1212, i32 0, i32 0} ; [ DW_TAG_subroutine_type ]
!1212 = metadata !{null, metadata !1180, metadata !87}
!1213 = metadata !{i32 786478, i32 0, metadata !1163, metadata !"ap_int_base", metadata !"ap_int_base", metadata !"", metadata !67, i32 1467, metadata !1214, i1 false, i1 false, i32 0, i32 0, null, i32 384, i1 false, null, null, i32 0, metadata !83, i32 1467} ; [ DW_TAG_subprogram ]
!1214 = metadata !{i32 786453, i32 0, metadata !"", i32 0, i32 0, i64 0, i64 0, i64 0, i32 0, null, metadata !1215, i32 0, i32 0} ; [ DW_TAG_subroutine_type ]
!1215 = metadata !{null, metadata !1180, metadata !132}
!1216 = metadata !{i32 786478, i32 0, metadata !1163, metadata !"ap_int_base", metadata !"ap_int_base", metadata !"", metadata !67, i32 1468, metadata !1217, i1 false, i1 false, i32 0, i32 0, null, i32 384, i1 false, null, null, i32 0, metadata !83, i32 1468} ; [ DW_TAG_subprogram ]
!1217 = metadata !{i32 786453, i32 0, metadata !"", i32 0, i32 0, i64 0, i64 0, i64 0, i32 0, null, metadata !1218, i32 0, i32 0} ; [ DW_TAG_subroutine_type ]
!1218 = metadata !{null, metadata !1180, metadata !136}
!1219 = metadata !{i32 786478, i32 0, metadata !1163, metadata !"ap_int_base", metadata !"ap_int_base", metadata !"", metadata !67, i32 1469, metadata !1220, i1 false, i1 false, i32 0, i32 0, null, i32 384, i1 false, null, null, i32 0, metadata !83, i32 1469} ; [ DW_TAG_subprogram ]
!1220 = metadata !{i32 786453, i32 0, metadata !"", i32 0, i32 0, i64 0, i64 0, i64 0, i32 0, null, metadata !1221, i32 0, i32 0} ; [ DW_TAG_subroutine_type ]
!1221 = metadata !{null, metadata !1180, metadata !140}
!1222 = metadata !{i32 786478, i32 0, metadata !1163, metadata !"ap_int_base", metadata !"ap_int_base", metadata !"", metadata !67, i32 1470, metadata !1223, i1 false, i1 false, i32 0, i32 0, null, i32 384, i1 false, null, null, i32 0, metadata !83, i32 1470} ; [ DW_TAG_subprogram ]
!1223 = metadata !{i32 786453, i32 0, metadata !"", i32 0, i32 0, i64 0, i64 0, i64 0, i32 0, null, metadata !1224, i32 0, i32 0} ; [ DW_TAG_subroutine_type ]
!1224 = metadata !{null, metadata !1180, metadata !144}
!1225 = metadata !{i32 786478, i32 0, metadata !1163, metadata !"ap_int_base", metadata !"ap_int_base", metadata !"", metadata !67, i32 1471, metadata !1226, i1 false, i1 false, i32 0, i32 0, null, i32 384, i1 false, null, null, i32 0, metadata !83, i32 1471} ; [ DW_TAG_subprogram ]
